---
triple:          'arm64-apple-darwin'
binary-path:     euchre.exe
relocations:
  - { offsetInCU: 0x52, offset: 0x52, size: 0x8, addend: 0x0, symName: __ZL10RANK_NAMES, symObjAddr: 0x2B30, symBinAddr: 0x1000102E8, symSize: 0x0 }
  - { offsetInCU: 0x81, offset: 0x81, size: 0x8, addend: 0x0, symName: __ZL10SUIT_NAMES, symObjAddr: 0x2B98, symBinAddr: 0x100010350, symSize: 0x0 }
  - { offsetInCU: 0x3088, offset: 0x3088, size: 0x8, addend: 0x0, symName: __ZNSt3__124__put_character_sequenceB7v160006IcNS_11char_traitsIcEEEERNS_13basic_ostreamIT_T0_EES7_PKS4_m, symObjAddr: 0x1910, symBinAddr: 0x100003AF0, symSize: 0x1EC }
  - { offsetInCU: 0x4EDE, offset: 0x4EDE, size: 0x8, addend: 0x0, symName: __ZNSt3__1eqB7v160006IcNS_11char_traitsIcEENS_9allocatorIcEEEEbRKNS_12basic_stringIT_T0_T1_EEPKS6_, symObjAddr: 0x90, symBinAddr: 0x100002270, symSize: 0xAC }
  - { offsetInCU: 0x4F45, offset: 0x4F45, size: 0x8, addend: 0x0, symName: __ZNSt3__1lsB7v160006INS_11char_traitsIcEEEERNS_13basic_ostreamIcT_EES6_PKc, symObjAddr: 0x17C, symBinAddr: 0x10000235C, symSize: 0x48 }
  - { offsetInCU: 0x4F8B, offset: 0x4F8B, size: 0x8, addend: 0x0, symName: __ZNSt3__1rsB7v160006IcNS_11char_traitsIcEENS_9allocatorIcEEEERNS_13basic_istreamIT_T0_EES9_RNS_12basic_stringIS6_S7_T1_EE, symObjAddr: 0x2AC, symBinAddr: 0x10000248C, symSize: 0x30C }
  - { offsetInCU: 0x5058, offset: 0x5058, size: 0x8, addend: 0x0, symName: __ZNSt3__118__constexpr_strlenB7v160006EPKc, symObjAddr: 0x1820, symBinAddr: 0x100003A00, symSize: 0x24 }
  - { offsetInCU: 0x5084, offset: 0x5084, size: 0x8, addend: 0x0, symName: __ZNSt3__116__pad_and_outputB7v160006IcNS_11char_traitsIcEEEENS_19ostreambuf_iteratorIT_T0_EES6_PKS4_S8_S8_RNS_8ios_baseES4_, symObjAddr: 0x1B18, symBinAddr: 0x100003CF8, symSize: 0x240 }
  - { offsetInCU: 0x5153, offset: 0x5153, size: 0x8, addend: 0x0, symName: __ZNSt3__119__debug_db_insert_cB7v160006INS_12basic_stringIcNS_11char_traitsIcEENS_9allocatorIcEEEEEEvPT_, symObjAddr: 0x1FCC, symBinAddr: 0x1000041AC, symSize: 0x10 }
  - { offsetInCU: 0x5184, offset: 0x5184, size: 0x8, addend: 0x0, symName: __ZNSt3__112__to_addressB7v160006IcEEPT_S2_, symObjAddr: 0x2098, symBinAddr: 0x100004278, symSize: 0x14 }
  - { offsetInCU: 0x51EC, offset: 0x51EC, size: 0x8, addend: 0x0, symName: __ZNSt3__19use_facetB7v160006INS_5ctypeIcEEEERKT_RKNS_6localeE, symObjAddr: 0x22E0, symBinAddr: 0x1000044C0, symSize: 0x2C }
  - { offsetInCU: 0x5D40, offset: 0x5D40, size: 0x8, addend: 0x0, symName: __ZNSt3__125__debug_db_invalidate_allB7v160006INS_12basic_stringIcNS_11char_traitsIcEENS_9allocatorIcEEEEEEvPT_, symObjAddr: 0x2770, symBinAddr: 0x100004950, symSize: 0x10 }
  - { offsetInCU: 0x8505, offset: 0x8505, size: 0x8, addend: 0x0, symName: __Z14string_to_rankRKNSt3__112basic_stringIcNS_11char_traitsIcEENS_9allocatorIcEEEE, symObjAddr: 0x0, symBinAddr: 0x1000021E0, symSize: 0x90 }
  - { offsetInCU: 0x854D, offset: 0x854D, size: 0x8, addend: 0x0, symName: __ZlsRNSt3__113basic_ostreamIcNS_11char_traitsIcEEEE4Rank, symObjAddr: 0x13C, symBinAddr: 0x10000231C, symSize: 0x40 }
  - { offsetInCU: 0x8587, offset: 0x8587, size: 0x8, addend: 0x0, symName: __ZrsRNSt3__113basic_istreamIcNS_11char_traitsIcEEEER4Rank, symObjAddr: 0x1C4, symBinAddr: 0x1000023A4, symSize: 0xBC }
  - { offsetInCU: 0x85CF, offset: 0x85CF, size: 0x8, addend: 0x0, symName: __ZNSt3__112basic_stringIcNS_11char_traitsIcEENS_9allocatorIcEEEC1B7v160006Ev, symObjAddr: 0x280, symBinAddr: 0x100002460, symSize: 0x2C }
  - { offsetInCU: 0x85F8, offset: 0x85F8, size: 0x8, addend: 0x0, symName: __ZNKSt3__19basic_iosIcNS_11char_traitsIcEEEcvbB7v160006Ev, symObjAddr: 0x5B8, symBinAddr: 0x100002798, symSize: 0x2C }
  - { offsetInCU: 0x861B, offset: 0x861B, size: 0x8, addend: 0x0, symName: __Z14string_to_suitRKNSt3__112basic_stringIcNS_11char_traitsIcEENS_9allocatorIcEEEE, symObjAddr: 0x5E4, symBinAddr: 0x1000027C4, symSize: 0x90 }
  - { offsetInCU: 0x8663, offset: 0x8663, size: 0x8, addend: 0x0, symName: __ZlsRNSt3__113basic_ostreamIcNS_11char_traitsIcEEEE4Suit, symObjAddr: 0x674, symBinAddr: 0x100002854, symSize: 0x40 }
  - { offsetInCU: 0x869D, offset: 0x869D, size: 0x8, addend: 0x0, symName: __ZrsRNSt3__113basic_istreamIcNS_11char_traitsIcEEEER4Suit, symObjAddr: 0x6B4, symBinAddr: 0x100002894, symSize: 0xBC }
  - { offsetInCU: 0x87EB, offset: 0x87EB, size: 0x8, addend: 0x0, symName: __ZN4CardC2Ev, symObjAddr: 0x770, symBinAddr: 0x100002950, symSize: 0x1C }
  - { offsetInCU: 0x8816, offset: 0x8816, size: 0x8, addend: 0x0, symName: __ZN4CardC1Ev, symObjAddr: 0x78C, symBinAddr: 0x10000296C, symSize: 0x2C }
  - { offsetInCU: 0x8841, offset: 0x8841, size: 0x8, addend: 0x0, symName: __ZN4CardC2E4Rank4Suit, symObjAddr: 0x7B8, symBinAddr: 0x100002998, symSize: 0x2C }
  - { offsetInCU: 0x8888, offset: 0x8888, size: 0x8, addend: 0x0, symName: __ZN4CardC1E4Rank4Suit, symObjAddr: 0x7E4, symBinAddr: 0x1000029C4, symSize: 0x3C }
  - { offsetInCU: 0x88CF, offset: 0x88CF, size: 0x8, addend: 0x0, symName: __ZNK4Card8get_rankEv, symObjAddr: 0x820, symBinAddr: 0x100002A00, symSize: 0x18 }
  - { offsetInCU: 0x88F6, offset: 0x88F6, size: 0x8, addend: 0x0, symName: __ZNK4Card8get_suitEv, symObjAddr: 0x838, symBinAddr: 0x100002A18, symSize: 0x18 }
  - { offsetInCU: 0x891D, offset: 0x891D, size: 0x8, addend: 0x0, symName: __ZNK4Card8get_suitE4Suit, symObjAddr: 0x850, symBinAddr: 0x100002A30, symSize: 0x58 }
  - { offsetInCU: 0x8952, offset: 0x8952, size: 0x8, addend: 0x0, symName: __ZNK4Card13is_left_bowerE4Suit, symObjAddr: 0x8A8, symBinAddr: 0x100002A88, symSize: 0x98 }
  - { offsetInCU: 0x8987, offset: 0x8987, size: 0x8, addend: 0x0, symName: __ZNK4Card14is_face_or_aceEv, symObjAddr: 0x940, symBinAddr: 0x100002B20, symSize: 0x64 }
  - { offsetInCU: 0x89AE, offset: 0x89AE, size: 0x8, addend: 0x0, symName: __ZNK4Card14is_right_bowerE4Suit, symObjAddr: 0x9A4, symBinAddr: 0x100002B84, symSize: 0x88 }
  - { offsetInCU: 0x89E3, offset: 0x89E3, size: 0x8, addend: 0x0, symName: __Z9Suit_next4Suit, symObjAddr: 0xA2C, symBinAddr: 0x100002C0C, symSize: 0x48 }
  - { offsetInCU: 0x8A12, offset: 0x8A12, size: 0x8, addend: 0x0, symName: __ZNK4Card8is_trumpE4Suit, symObjAddr: 0xA74, symBinAddr: 0x100002C54, symSize: 0x70 }
  - { offsetInCU: 0x8A46, offset: 0x8A46, size: 0x8, addend: 0x0, symName: __ZlsRNSt3__113basic_ostreamIcNS_11char_traitsIcEEEERK4Card, symObjAddr: 0xAE4, symBinAddr: 0x100002CC4, symSize: 0x7C }
  - { offsetInCU: 0x8A80, offset: 0x8A80, size: 0x8, addend: 0x0, symName: __ZrsRNSt3__113basic_istreamIcNS_11char_traitsIcEEEER4Card, symObjAddr: 0xB60, symBinAddr: 0x100002D40, symSize: 0x144 }
  - { offsetInCU: 0x8AE9, offset: 0x8AE9, size: 0x8, addend: 0x0, symName: __ZNSt3__112basic_stringIcNS_11char_traitsIcEENS_9allocatorIcEEEC1B7v160006IDnEEPKc, symObjAddr: 0xCA4, symBinAddr: 0x100002E84, symSize: 0x34 }
  - { offsetInCU: 0x8B25, offset: 0x8B25, size: 0x8, addend: 0x0, symName: __ZltRK4CardS1_, symObjAddr: 0xCD8, symBinAddr: 0x100002EB8, symSize: 0xFC }
  - { offsetInCU: 0x8B5F, offset: 0x8B5F, size: 0x8, addend: 0x0, symName: __ZleRK4CardS1_, symObjAddr: 0xDD4, symBinAddr: 0x100002FB4, symSize: 0xFC }
  - { offsetInCU: 0x8B99, offset: 0x8B99, size: 0x8, addend: 0x0, symName: __ZgtRK4CardS1_, symObjAddr: 0xED0, symBinAddr: 0x1000030B0, symSize: 0xFC }
  - { offsetInCU: 0x8BD6, offset: 0x8BD6, size: 0x8, addend: 0x0, symName: __ZgeRK4CardS1_, symObjAddr: 0xFCC, symBinAddr: 0x1000031AC, symSize: 0xFC }
  - { offsetInCU: 0x8C13, offset: 0x8C13, size: 0x8, addend: 0x0, symName: __ZeqRK4CardS1_, symObjAddr: 0x10C8, symBinAddr: 0x1000032A8, symSize: 0xA8 }
  - { offsetInCU: 0x8C50, offset: 0x8C50, size: 0x8, addend: 0x0, symName: __ZneRK4CardS1_, symObjAddr: 0x1170, symBinAddr: 0x100003350, symSize: 0x64 }
  - { offsetInCU: 0x8C8D, offset: 0x8C8D, size: 0x8, addend: 0x0, symName: __Z9Card_lessRK4CardS1_4Suit, symObjAddr: 0x11D4, symBinAddr: 0x1000033B4, symSize: 0x288 }
  - { offsetInCU: 0x8CD9, offset: 0x8CD9, size: 0x8, addend: 0x0, symName: __Z9Card_lessRK4CardS1_S1_4Suit, symObjAddr: 0x145C, symBinAddr: 0x10000363C, symSize: 0x330 }
  - { offsetInCU: 0x8D44, offset: 0x8D44, size: 0x8, addend: 0x0, symName: __ZNSt3__111char_traitsIcE6lengthEPKc, symObjAddr: 0x178C, symBinAddr: 0x10000396C, symSize: 0x34 }
  - { offsetInCU: 0x8D67, offset: 0x8D67, size: 0x8, addend: 0x0, symName: __ZNKSt3__112basic_stringIcNS_11char_traitsIcEENS_9allocatorIcEEE4sizeB7v160006Ev, symObjAddr: 0x17C0, symBinAddr: 0x1000039A0, symSize: 0x54 }
  - { offsetInCU: 0x8D8B, offset: 0x8D8B, size: 0x8, addend: 0x0, symName: __ZNKSt3__112basic_stringIcNS_11char_traitsIcEENS_9allocatorIcEEE9__is_longB7v160006Ev, symObjAddr: 0x1844, symBinAddr: 0x100003A24, symSize: 0x38 }
  - { offsetInCU: 0x8DAF, offset: 0x8DAF, size: 0x8, addend: 0x0, symName: __ZNKSt3__112basic_stringIcNS_11char_traitsIcEENS_9allocatorIcEEE15__get_long_sizeB7v160006Ev, symObjAddr: 0x187C, symBinAddr: 0x100003A5C, symSize: 0x28 }
  - { offsetInCU: 0x8DD3, offset: 0x8DD3, size: 0x8, addend: 0x0, symName: __ZNKSt3__112basic_stringIcNS_11char_traitsIcEENS_9allocatorIcEEE16__get_short_sizeB7v160006Ev, symObjAddr: 0x18A4, symBinAddr: 0x100003A84, symSize: 0x34 }
  - { offsetInCU: 0x8DF7, offset: 0x8DF7, size: 0x8, addend: 0x0, symName: __ZNKSt3__117__compressed_pairINS_12basic_stringIcNS_11char_traitsIcEENS_9allocatorIcEEE5__repES5_E5firstB7v160006Ev, symObjAddr: 0x18D8, symBinAddr: 0x100003AB8, symSize: 0x24 }
  - { offsetInCU: 0x8E1B, offset: 0x8E1B, size: 0x8, addend: 0x0, symName: __ZNKSt3__122__compressed_pair_elemINS_12basic_stringIcNS_11char_traitsIcEENS_9allocatorIcEEE5__repELi0ELb0EE5__getB7v160006Ev, symObjAddr: 0x18FC, symBinAddr: 0x100003ADC, symSize: 0x14 }
  - { offsetInCU: 0x8E5E, offset: 0x8E5E, size: 0x8, addend: 0x0, symName: __ZNKSt3__113basic_ostreamIcNS_11char_traitsIcEEE6sentrycvbB7v160006Ev, symObjAddr: 0x1AFC, symBinAddr: 0x100003CDC, symSize: 0x1C }
  - { offsetInCU: 0x8E82, offset: 0x8E82, size: 0x8, addend: 0x0, symName: __ZNSt3__119ostreambuf_iteratorIcNS_11char_traitsIcEEEC1B7v160006ERNS_13basic_ostreamIcS2_EE, symObjAddr: 0x1D58, symBinAddr: 0x100003F38, symSize: 0x34 }
  - { offsetInCU: 0x8EB9, offset: 0x8EB9, size: 0x8, addend: 0x0, symName: __ZNKSt3__18ios_base5flagsB7v160006Ev, symObjAddr: 0x1D8C, symBinAddr: 0x100003F6C, symSize: 0x18 }
  - { offsetInCU: 0x8EE0, offset: 0x8EE0, size: 0x8, addend: 0x0, symName: __ZNKSt3__19basic_iosIcNS_11char_traitsIcEEE4fillB7v160006Ev, symObjAddr: 0x1DA4, symBinAddr: 0x100003F84, symSize: 0x64 }
  - { offsetInCU: 0x8F07, offset: 0x8F07, size: 0x8, addend: 0x0, symName: __ZNKSt3__119ostreambuf_iteratorIcNS_11char_traitsIcEEE6failedB7v160006Ev, symObjAddr: 0x1E08, symBinAddr: 0x100003FE8, symSize: 0x24 }
  - { offsetInCU: 0x8F2C, offset: 0x8F2C, size: 0x8, addend: 0x0, symName: __ZNSt3__19basic_iosIcNS_11char_traitsIcEEE8setstateB7v160006Ej, symObjAddr: 0x1E2C, symBinAddr: 0x10000400C, symSize: 0x2C }
  - { offsetInCU: 0x8F5F, offset: 0x8F5F, size: 0x8, addend: 0x0, symName: __ZNKSt3__18ios_base5widthB7v160006Ev, symObjAddr: 0x1E58, symBinAddr: 0x100004038, symSize: 0x18 }
  - { offsetInCU: 0x8F86, offset: 0x8F86, size: 0x8, addend: 0x0, symName: __ZNSt3__115basic_streambufIcNS_11char_traitsIcEEE5sputnB7v160006EPKcl, symObjAddr: 0x1E70, symBinAddr: 0x100004050, symSize: 0x3C }
  - { offsetInCU: 0x8FC5, offset: 0x8FC5, size: 0x8, addend: 0x0, symName: __ZNSt3__112basic_stringIcNS_11char_traitsIcEENS_9allocatorIcEEEC1B7v160006Emc, symObjAddr: 0x1EAC, symBinAddr: 0x10000408C, symSize: 0x3C }
  - { offsetInCU: 0x900C, offset: 0x900C, size: 0x8, addend: 0x0, symName: __ZNSt3__112basic_stringIcNS_11char_traitsIcEENS_9allocatorIcEEE4dataB7v160006Ev, symObjAddr: 0x1EE8, symBinAddr: 0x1000040C8, symSize: 0x28 }
  - { offsetInCU: 0x9030, offset: 0x9030, size: 0x8, addend: 0x0, symName: __ZNSt3__18ios_base5widthB7v160006El, symObjAddr: 0x1F10, symBinAddr: 0x1000040F0, symSize: 0x2C }
  - { offsetInCU: 0x9074, offset: 0x9074, size: 0x8, addend: 0x0, symName: __ZNSt3__112basic_stringIcNS_11char_traitsIcEENS_9allocatorIcEEEC2B7v160006Emc, symObjAddr: 0x1F3C, symBinAddr: 0x10000411C, symSize: 0x54 }
  - { offsetInCU: 0x90BF, offset: 0x90BF, size: 0x8, addend: 0x0, symName: __ZNSt3__117__compressed_pairINS_12basic_stringIcNS_11char_traitsIcEENS_9allocatorIcEEE5__repES5_EC1B7v160006INS_18__default_init_tagESA_EEOT_OT0_, symObjAddr: 0x1F90, symBinAddr: 0x100004170, symSize: 0x3C }
  - { offsetInCU: 0x9115, offset: 0x9115, size: 0x8, addend: 0x0, symName: __ZNSt3__117__compressed_pairINS_12basic_stringIcNS_11char_traitsIcEENS_9allocatorIcEEE5__repES5_EC2B7v160006INS_18__default_init_tagESA_EEOT_OT0_, symObjAddr: 0x1FDC, symBinAddr: 0x1000041BC, symSize: 0x3C }
  - { offsetInCU: 0x916C, offset: 0x916C, size: 0x8, addend: 0x0, symName: __ZNSt3__122__compressed_pair_elemINS_12basic_stringIcNS_11char_traitsIcEENS_9allocatorIcEEE5__repELi0ELb0EEC2B7v160006ENS_18__default_init_tagE, symObjAddr: 0x2018, symBinAddr: 0x1000041F8, symSize: 0x14 }
  - { offsetInCU: 0x919F, offset: 0x919F, size: 0x8, addend: 0x0, symName: __ZNSt3__122__compressed_pair_elemINS_9allocatorIcEELi1ELb1EEC2B7v160006ENS_18__default_init_tagE, symObjAddr: 0x202C, symBinAddr: 0x10000420C, symSize: 0x2C }
  - { offsetInCU: 0x91D2, offset: 0x91D2, size: 0x8, addend: 0x0, symName: __ZNSt3__19allocatorIcEC2B7v160006Ev, symObjAddr: 0x2058, symBinAddr: 0x100004238, symSize: 0x2C }
  - { offsetInCU: 0x91FB, offset: 0x91FB, size: 0x8, addend: 0x0, symName: __ZNSt3__116__non_trivial_ifILb1ENS_9allocatorIcEEEC2B7v160006Ev, symObjAddr: 0x2084, symBinAddr: 0x100004264, symSize: 0x14 }
  - { offsetInCU: 0x9224, offset: 0x9224, size: 0x8, addend: 0x0, symName: __ZNSt3__112basic_stringIcNS_11char_traitsIcEENS_9allocatorIcEEE13__get_pointerB7v160006Ev, symObjAddr: 0x20AC, symBinAddr: 0x10000428C, symSize: 0x54 }
  - { offsetInCU: 0x9248, offset: 0x9248, size: 0x8, addend: 0x0, symName: __ZNSt3__112basic_stringIcNS_11char_traitsIcEENS_9allocatorIcEEE18__get_long_pointerB7v160006Ev, symObjAddr: 0x2100, symBinAddr: 0x1000042E0, symSize: 0x28 }
  - { offsetInCU: 0x926C, offset: 0x926C, size: 0x8, addend: 0x0, symName: __ZNSt3__112basic_stringIcNS_11char_traitsIcEENS_9allocatorIcEEE19__get_short_pointerB7v160006Ev, symObjAddr: 0x2128, symBinAddr: 0x100004308, symSize: 0x28 }
  - { offsetInCU: 0x9290, offset: 0x9290, size: 0x8, addend: 0x0, symName: __ZNSt3__117__compressed_pairINS_12basic_stringIcNS_11char_traitsIcEENS_9allocatorIcEEE5__repES5_E5firstB7v160006Ev, symObjAddr: 0x2150, symBinAddr: 0x100004330, symSize: 0x24 }
  - { offsetInCU: 0x92B4, offset: 0x92B4, size: 0x8, addend: 0x0, symName: __ZNSt3__122__compressed_pair_elemINS_12basic_stringIcNS_11char_traitsIcEENS_9allocatorIcEEE5__repELi0ELb0EE5__getB7v160006Ev, symObjAddr: 0x2174, symBinAddr: 0x100004354, symSize: 0x14 }
  - { offsetInCU: 0x92D9, offset: 0x92D9, size: 0x8, addend: 0x0, symName: __ZNSt3__114pointer_traitsIPcE10pointer_toB7v160006ERc, symObjAddr: 0x2188, symBinAddr: 0x100004368, symSize: 0x14 }
  - { offsetInCU: 0x92FB, offset: 0x92FB, size: 0x8, addend: 0x0, symName: __ZNSt3__119ostreambuf_iteratorIcNS_11char_traitsIcEEEC2B7v160006ERNS_13basic_ostreamIcS2_EE, symObjAddr: 0x219C, symBinAddr: 0x10000437C, symSize: 0x54 }
  - { offsetInCU: 0x9332, offset: 0x9332, size: 0x8, addend: 0x0, symName: __ZNKSt3__19basic_iosIcNS_11char_traitsIcEEE5rdbufB7v160006Ev, symObjAddr: 0x21F0, symBinAddr: 0x1000043D0, symSize: 0x24 }
  - { offsetInCU: 0x9359, offset: 0x9359, size: 0x8, addend: 0x0, symName: __ZNKSt3__18ios_base5rdbufB7v160006Ev, symObjAddr: 0x2214, symBinAddr: 0x1000043F4, symSize: 0x18 }
  - { offsetInCU: 0x937E, offset: 0x937E, size: 0x8, addend: 0x0, symName: __ZNSt3__111char_traitsIcE11eq_int_typeEii, symObjAddr: 0x222C, symBinAddr: 0x10000440C, symSize: 0x28 }
  - { offsetInCU: 0x93AF, offset: 0x93AF, size: 0x8, addend: 0x0, symName: __ZNSt3__111char_traitsIcE3eofEv, symObjAddr: 0x2254, symBinAddr: 0x100004434, symSize: 0x8 }
  - { offsetInCU: 0x93C3, offset: 0x93C3, size: 0x8, addend: 0x0, symName: __ZNKSt3__19basic_iosIcNS_11char_traitsIcEEE5widenB7v160006Ec, symObjAddr: 0x225C, symBinAddr: 0x10000443C, symSize: 0x84 }
  - { offsetInCU: 0x9426, offset: 0x9426, size: 0x8, addend: 0x0, symName: __ZNKSt3__15ctypeIcE5widenB7v160006Ec, symObjAddr: 0x230C, symBinAddr: 0x1000044EC, symSize: 0x38 }
  - { offsetInCU: 0x9459, offset: 0x9459, size: 0x8, addend: 0x0, symName: __ZNSt3__18ios_base8setstateB7v160006Ej, symObjAddr: 0x2344, symBinAddr: 0x100004524, symSize: 0x34 }
  - { offsetInCU: 0x948E, offset: 0x948E, size: 0x8, addend: 0x0, symName: __ZNSt3__112basic_stringIcNS_11char_traitsIcEENS_9allocatorIcEEEC2B7v160006Ev, symObjAddr: 0x2378, symBinAddr: 0x100004558, symSize: 0x50 }
  - { offsetInCU: 0x94B7, offset: 0x94B7, size: 0x8, addend: 0x0, symName: __ZNSt3__112basic_stringIcNS_11char_traitsIcEENS_9allocatorIcEEE14__default_initB7v160006Ev, symObjAddr: 0x23C8, symBinAddr: 0x1000045A8, symSize: 0x40 }
  - { offsetInCU: 0x956D, offset: 0x956D, size: 0x8, addend: 0x0, symName: __ZNKSt3__113basic_istreamIcNS_11char_traitsIcEEE6sentrycvbB7v160006Ev, symObjAddr: 0x2408, symBinAddr: 0x1000045E8, symSize: 0x1C }
  - { offsetInCU: 0x9592, offset: 0x9592, size: 0x8, addend: 0x0, symName: __ZNSt3__112basic_stringIcNS_11char_traitsIcEENS_9allocatorIcEEE5clearB7v160006Ev, symObjAddr: 0x2424, symBinAddr: 0x100004604, symSize: 0x88 }
  - { offsetInCU: 0x95B9, offset: 0x95B9, size: 0x8, addend: 0x0, symName: __ZNKSt3__112basic_stringIcNS_11char_traitsIcEENS_9allocatorIcEEE8max_sizeB7v160006Ev, symObjAddr: 0x24AC, symBinAddr: 0x10000468C, symSize: 0xAC }
  - { offsetInCU: 0x9609, offset: 0x9609, size: 0x8, addend: 0x0, symName: __ZNSt3__114numeric_limitsIlE3maxB7v160006Ev, symObjAddr: 0x2558, symBinAddr: 0x100004738, symSize: 0x14 }
  - { offsetInCU: 0x961D, offset: 0x961D, size: 0x8, addend: 0x0, symName: __ZNSt3__115basic_streambufIcNS_11char_traitsIcEEE5sgetcB7v160006Ev, symObjAddr: 0x256C, symBinAddr: 0x10000474C, symSize: 0x70 }
  - { offsetInCU: 0x9641, offset: 0x9641, size: 0x8, addend: 0x0, symName: __ZNSt3__111char_traitsIcE12to_char_typeEi, symObjAddr: 0x25DC, symBinAddr: 0x1000047BC, symSize: 0x18 }
  - { offsetInCU: 0x9664, offset: 0x9664, size: 0x8, addend: 0x0, symName: __ZNKSt3__15ctypeIcE2isB7v160006Ejc, symObjAddr: 0x25F4, symBinAddr: 0x1000047D4, symSize: 0x7C }
  - { offsetInCU: 0x96A6, offset: 0x96A6, size: 0x8, addend: 0x0, symName: __ZNSt3__115basic_streambufIcNS_11char_traitsIcEEE6sbumpcB7v160006Ev, symObjAddr: 0x2670, symBinAddr: 0x100004850, symSize: 0x78 }
  - { offsetInCU: 0x96CA, offset: 0x96CA, size: 0x8, addend: 0x0, symName: __ZNSt3__18ios_base18__setstate_nothrowB7v160006Ej, symObjAddr: 0x26E8, symBinAddr: 0x1000048C8, symSize: 0x64 }
  - { offsetInCU: 0x96FE, offset: 0x96FE, size: 0x8, addend: 0x0, symName: __ZNKSt3__19basic_iosIcNS_11char_traitsIcEEE10exceptionsB7v160006Ev, symObjAddr: 0x274C, symBinAddr: 0x10000492C, symSize: 0x24 }
  - { offsetInCU: 0x9722, offset: 0x9722, size: 0x8, addend: 0x0, symName: __ZNSt3__111char_traitsIcE6assignERcRKc, symObjAddr: 0x2780, symBinAddr: 0x100004960, symSize: 0x24 }
  - { offsetInCU: 0x9753, offset: 0x9753, size: 0x8, addend: 0x0, symName: __ZNSt3__112basic_stringIcNS_11char_traitsIcEENS_9allocatorIcEEE15__set_long_sizeB7v160006Em, symObjAddr: 0x27A4, symBinAddr: 0x100004984, symSize: 0x38 }
  - { offsetInCU: 0x9786, offset: 0x9786, size: 0x8, addend: 0x0, symName: __ZNSt3__112basic_stringIcNS_11char_traitsIcEENS_9allocatorIcEEE16__set_short_sizeB7v160006Em, symObjAddr: 0x27DC, symBinAddr: 0x1000049BC, symSize: 0x78 }
  - { offsetInCU: 0x97C3, offset: 0x97C3, size: 0x8, addend: 0x0, symName: __ZNSt3__116allocator_traitsINS_9allocatorIcEEE8max_sizeB7v160006IS2_vEEmRKS2_, symObjAddr: 0x2854, symBinAddr: 0x100004A34, symSize: 0x24 }
  - { offsetInCU: 0x97F1, offset: 0x97F1, size: 0x8, addend: 0x0, symName: __ZNKSt3__112basic_stringIcNS_11char_traitsIcEENS_9allocatorIcEEE7__allocB7v160006Ev, symObjAddr: 0x2878, symBinAddr: 0x100004A58, symSize: 0x24 }
  - { offsetInCU: 0x9815, offset: 0x9815, size: 0x8, addend: 0x0, symName: __ZNSt3__114numeric_limitsImE3maxB7v160006Ev, symObjAddr: 0x289C, symBinAddr: 0x100004A7C, symSize: 0x14 }
  - { offsetInCU: 0x9829, offset: 0x9829, size: 0x8, addend: 0x0, symName: __ZNKSt3__19allocatorIcE8max_sizeB7v160006Ev, symObjAddr: 0x28B0, symBinAddr: 0x100004A90, symSize: 0x14 }
  - { offsetInCU: 0x984E, offset: 0x984E, size: 0x8, addend: 0x0, symName: __ZNKSt3__117__compressed_pairINS_12basic_stringIcNS_11char_traitsIcEENS_9allocatorIcEEE5__repES5_E6secondB7v160006Ev, symObjAddr: 0x28C4, symBinAddr: 0x100004AA4, symSize: 0x24 }
  - { offsetInCU: 0x9872, offset: 0x9872, size: 0x8, addend: 0x0, symName: __ZNKSt3__122__compressed_pair_elemINS_9allocatorIcEELi1ELb1EE5__getB7v160006Ev, symObjAddr: 0x28E8, symBinAddr: 0x100004AC8, symSize: 0x14 }
  - { offsetInCU: 0x9897, offset: 0x9897, size: 0x8, addend: 0x0, symName: __ZNSt3__123__libcpp_numeric_limitsImLb1EE3maxB7v160006Ev, symObjAddr: 0x28FC, symBinAddr: 0x100004ADC, symSize: 0x8 }
  - { offsetInCU: 0x98AB, offset: 0x98AB, size: 0x8, addend: 0x0, symName: __ZNSt3__123__libcpp_numeric_limitsIlLb1EE3maxB7v160006Ev, symObjAddr: 0x2904, symBinAddr: 0x100004AE4, symSize: 0x8 }
  - { offsetInCU: 0x98BF, offset: 0x98BF, size: 0x8, addend: 0x0, symName: __ZNSt3__111char_traitsIcE11to_int_typeEc, symObjAddr: 0x290C, symBinAddr: 0x100004AEC, symSize: 0x14 }
  - { offsetInCU: 0x98E1, offset: 0x98E1, size: 0x8, addend: 0x0, symName: __Z7isasciii, symObjAddr: 0x2920, symBinAddr: 0x100004B00, symSize: 0x24 }
  - { offsetInCU: 0x990E, offset: 0x990E, size: 0x8, addend: 0x0, symName: __ZNKSt3__18ios_base10exceptionsB7v160006Ev, symObjAddr: 0x2944, symBinAddr: 0x100004B24, symSize: 0x18 }
  - { offsetInCU: 0x9935, offset: 0x9935, size: 0x8, addend: 0x0, symName: __ZNKSt3__19basic_iosIcNS_11char_traitsIcEEE4failB7v160006Ev, symObjAddr: 0x295C, symBinAddr: 0x100004B3C, symSize: 0x28 }
  - { offsetInCU: 0x9959, offset: 0x9959, size: 0x8, addend: 0x0, symName: __ZNKSt3__18ios_base4failB7v160006Ev, symObjAddr: 0x2984, symBinAddr: 0x100004B64, symSize: 0x28 }
  - { offsetInCU: 0x997F, offset: 0x997F, size: 0x8, addend: 0x0, symName: __ZNSt3__112basic_stringIcNS_11char_traitsIcEENS_9allocatorIcEEEC2B7v160006IDnEEPKc, symObjAddr: 0x29AC, symBinAddr: 0x100004B8C, symSize: 0x60 }
  - { offsetInCU: 0x26, offset: 0x9A68, size: 0x8, addend: 0x0, symName: __ZN4PackC2Ev, symObjAddr: 0x0, symBinAddr: 0x100004BEC, symSize: 0xD4 }
  - { offsetInCU: 0x62AA, offset: 0xFCEC, size: 0x8, addend: 0x0, symName: __ZN4PackC2Ev, symObjAddr: 0x0, symBinAddr: 0x100004BEC, symSize: 0xD4 }
  - { offsetInCU: 0x6329, offset: 0xFD6B, size: 0x8, addend: 0x0, symName: __ZNSt3__15arrayI4CardLm24EEC1Ev, symObjAddr: 0xD4, symBinAddr: 0x100004CC0, symSize: 0x2C }
  - { offsetInCU: 0x6354, offset: 0xFD96, size: 0x8, addend: 0x0, symName: __ZNSt3__15arrayI4CardLm24EEixB7v160006Em, symObjAddr: 0x100, symBinAddr: 0x100004CEC, symSize: 0x20 }
  - { offsetInCU: 0x6387, offset: 0xFDC9, size: 0x8, addend: 0x0, symName: __ZN4PackC1Ev, symObjAddr: 0x120, symBinAddr: 0x100004D0C, symSize: 0x2C }
  - { offsetInCU: 0x63B2, offset: 0xFDF4, size: 0x8, addend: 0x0, symName: __ZN4PackC2ERNSt3__113basic_istreamIcNS0_11char_traitsIcEEEE, symObjAddr: 0x14C, symBinAddr: 0x100004D38, symSize: 0x90 }
  - { offsetInCU: 0x6407, offset: 0xFE49, size: 0x8, addend: 0x0, symName: __ZN4PackC1ERNSt3__113basic_istreamIcNS0_11char_traitsIcEEEE, symObjAddr: 0x1DC, symBinAddr: 0x100004DC8, symSize: 0x34 }
  - { offsetInCU: 0x6440, offset: 0xFE82, size: 0x8, addend: 0x0, symName: __ZN4Pack8deal_oneEv, symObjAddr: 0x210, symBinAddr: 0x100004DFC, symSize: 0x40 }
  - { offsetInCU: 0x6467, offset: 0xFEA9, size: 0x8, addend: 0x0, symName: __ZN4Pack5resetEv, symObjAddr: 0x250, symBinAddr: 0x100004E3C, symSize: 0x18 }
  - { offsetInCU: 0x648E, offset: 0xFED0, size: 0x8, addend: 0x0, symName: __ZN4Pack7shuffleEv, symObjAddr: 0x268, symBinAddr: 0x100004E54, symSize: 0x1D4 }
  - { offsetInCU: 0x651C, offset: 0xFF5E, size: 0x8, addend: 0x0, symName: __ZNK4Pack5emptyEv, symObjAddr: 0x43C, symBinAddr: 0x100005028, symSize: 0x24 }
  - { offsetInCU: 0x6543, offset: 0xFF85, size: 0x8, addend: 0x0, symName: __ZNSt3__15arrayI4CardLm24EEC2Ev, symObjAddr: 0x460, symBinAddr: 0x10000504C, symSize: 0x68 }
  - { offsetInCU: 0x460D, offset: 0x145CC, size: 0x8, addend: 0x0, symName: __ZNSt3__111__introsortINS_17_ClassicAlgPolicyERNS_6__lessI4CardS3_EEPS3_EEvT1_S7_T0_NS_15iterator_traitsIS7_E15difference_typeE, symObjAddr: 0x2C60, symBinAddr: 0x100007C40, symSize: 0x6B8 }
  - { offsetInCU: 0x476A, offset: 0x14729, size: 0x8, addend: 0x0, symName: __ZNSt3__118__insertion_sort_3B7v160006INS_17_ClassicAlgPolicyERNS_6__lessI4CardS3_EEPS3_EEvT1_S7_T0_, symObjAddr: 0x3480, symBinAddr: 0x100008460, symSize: 0x144 }
  - { offsetInCU: 0x483E, offset: 0x147FD, size: 0x8, addend: 0x0, symName: __ZNSt3__111__sift_downB7v160006INS_17_ClassicAlgPolicyERNS_6__lessI4CardS3_EEPS3_EEvT1_OT0_NS_15iterator_traitsIS7_E15difference_typeES7_, symObjAddr: 0x3E84, symBinAddr: 0x100008E64, symSize: 0x20C }
  - { offsetInCU: 0x48EC, offset: 0x148AB, size: 0x8, addend: 0x0, symName: __ZNSt3__117__floyd_sift_downB7v160006INS_17_ClassicAlgPolicyERNS_6__lessI4CardS3_EEPS3_EET1_S7_OT0_NS_15iterator_traitsIS7_E15difference_typeE, symObjAddr: 0x4214, symBinAddr: 0x1000091F4, symSize: 0x100 }
  - { offsetInCU: 0x4984, offset: 0x14943, size: 0x8, addend: 0x0, symName: __ZNSt3__127__insertion_sort_incompleteIRNS_6__lessI4CardS2_EEPS2_EEbT0_S6_T_, symObjAddr: 0x37F0, symBinAddr: 0x1000087D0, symSize: 0x310 }
  - { offsetInCU: 0x5F46, offset: 0x15F05, size: 0x8, addend: 0x0, symName: __ZNSt3__1lsB7v160006IcNS_11char_traitsIcEENS_9allocatorIcEEEERNS_13basic_ostreamIT_T0_EES9_RKNS_12basic_stringIS6_S7_T1_EE, symObjAddr: 0x258, symBinAddr: 0x100005260, symSize: 0x4C }
  - { offsetInCU: 0x5F9E, offset: 0x15F5D, size: 0x8, addend: 0x0, symName: __ZNSt3__119__debug_db_insert_cB7v160006INS_6vectorI4CardNS_9allocatorIS2_EEEEEEvPT_, symObjAddr: 0xE50, symBinAddr: 0x100005E4C, symSize: 0x10 }
  - { offsetInCU: 0x5FCF, offset: 0x15F8E, size: 0x8, addend: 0x0, symName: __ZNSt3__14sortB7v160006INS_11__wrap_iterIP4CardEEEEvT_S5_, symObjAddr: 0xF94, symBinAddr: 0x100005F90, symSize: 0x3C }
  - { offsetInCU: 0x6012, offset: 0x15FD1, size: 0x8, addend: 0x0, symName: __ZNSt3__112__to_addressB7v160006I4CardEEPT_S3_, symObjAddr: 0x1290, symBinAddr: 0x10000628C, symSize: 0x14 }
  - { offsetInCU: 0x6047, offset: 0x16006, size: 0x8, addend: 0x0, symName: __ZNSt3__13maxB7v160006ImEERKT_S3_S3_, symObjAddr: 0x16B4, symBinAddr: 0x1000066B0, symSize: 0x2C }
  - { offsetInCU: 0x608A, offset: 0x16049, size: 0x8, addend: 0x0, symName: __ZNSt3__13minB7v160006ImEERKT_S3_S3_, symObjAddr: 0x16E0, symBinAddr: 0x1000066DC, symSize: 0x2C }
  - { offsetInCU: 0x60CD, offset: 0x1608C, size: 0x8, addend: 0x0, symName: __ZNSt3__13minB7v160006ImNS_6__lessImmEEEERKT_S5_S5_T0_, symObjAddr: 0x176C, symBinAddr: 0x100006754, symSize: 0x54 }
  - { offsetInCU: 0x6162, offset: 0x16121, size: 0x8, addend: 0x0, symName: __ZNSt3__120__throw_length_errorB7v160006EPKc, symObjAddr: 0x1848, symBinAddr: 0x100006828, symSize: 0x64 }
  - { offsetInCU: 0x618B, offset: 0x1614A, size: 0x8, addend: 0x0, symName: __ZNSt3__13maxB7v160006ImNS_6__lessImmEEEERKT_S5_S5_T0_, symObjAddr: 0x198C, symBinAddr: 0x10000696C, symSize: 0x54 }
  - { offsetInCU: 0x61E5, offset: 0x161A4, size: 0x8, addend: 0x0, symName: __ZNSt3__119__allocate_at_leastB7v160006INS_9allocatorI4CardEEEENS_19__allocation_resultINS_16allocator_traitsIT_E7pointerEEERS6_m, symObjAddr: 0x1AF0, symBinAddr: 0x100006AD0, symSize: 0x40 }
  - { offsetInCU: 0x6228, offset: 0x161E7, size: 0x8, addend: 0x0, symName: __ZNSt3__117__libcpp_allocateB7v160006Emm, symObjAddr: 0x1C74, symBinAddr: 0x100006C54, symSize: 0x60 }
  - { offsetInCU: 0x6282, offset: 0x16241, size: 0x8, addend: 0x0, symName: __ZNSt3__124__is_overaligned_for_newB7v160006Em, symObjAddr: 0x1CD4, symBinAddr: 0x100006CB4, symSize: 0x20 }
  - { offsetInCU: 0x62B1, offset: 0x16270, size: 0x8, addend: 0x0, symName: __ZNSt3__121__libcpp_operator_newB7v160006IJmSt11align_val_tEEEPvDpT_, symObjAddr: 0x1CF4, symBinAddr: 0x100006CD4, symSize: 0x2C }
  - { offsetInCU: 0x62FF, offset: 0x162BE, size: 0x8, addend: 0x0, symName: __ZNSt3__121__libcpp_operator_newB7v160006IJmEEEPvDpT_, symObjAddr: 0x1D20, symBinAddr: 0x100006D00, symSize: 0x24 }
  - { offsetInCU: 0x6339, offset: 0x162F8, size: 0x8, addend: 0x0, symName: __ZNSt3__142__uninitialized_allocator_move_if_noexceptB7v160006INS_9allocatorI4CardEENS_16reverse_iteratorIPS2_EES6_S2_vEET1_RT_T0_SA_S7_, symObjAddr: 0x1E60, symBinAddr: 0x100006E40, symSize: 0x78 }
  - { offsetInCU: 0x63B7, offset: 0x16376, size: 0x8, addend: 0x0, symName: __ZNSt3__14swapB7v160006IP4CardEENS_9enable_ifIXaasr21is_move_constructibleIT_EE5valuesr18is_move_assignableIS4_EE5valueEvE4typeERS4_S7_, symObjAddr: 0x1F24, symBinAddr: 0x100006F04, symSize: 0x3C }
  - { offsetInCU: 0x6408, offset: 0x163C7, size: 0x8, addend: 0x0, symName: __ZNSt3__125__debug_db_invalidate_allB7v160006INS_6vectorI4CardNS_9allocatorIS2_EEEEEEvPT_, symObjAddr: 0x200C, symBinAddr: 0x100006FEC, symSize: 0x10 }
  - { offsetInCU: 0x6439, offset: 0x163F8, size: 0x8, addend: 0x0, symName: __ZNSt3__14moveB7v160006INS_16reverse_iteratorIP4CardEES4_EET0_T_S6_S5_, symObjAddr: 0x2064, symBinAddr: 0x100007044, symSize: 0x78 }
  - { offsetInCU: 0x6493, offset: 0x16452, size: 0x8, addend: 0x0, symName: __ZNSt3__16__moveB7v160006INS_17_ClassicAlgPolicyENS_16reverse_iteratorIP4CardEES5_S5_EENS_4pairIT0_T2_EES7_T1_S8_, symObjAddr: 0x20DC, symBinAddr: 0x1000070BC, symSize: 0x64 }
  - { offsetInCU: 0x64FF, offset: 0x164BE, size: 0x8, addend: 0x0, symName: __ZNSt3__123__dispatch_copy_or_moveB7v160006INS_17_ClassicAlgPolicyENS_11__move_loopIS1_EENS_14__move_trivialENS_16reverse_iteratorIP4CardEES8_S8_EENS_4pairIT2_T4_EESA_T3_SB_, symObjAddr: 0x2140, symBinAddr: 0x100007120, symSize: 0x64 }
  - { offsetInCU: 0x657D, offset: 0x1653C, size: 0x8, addend: 0x0, symName: __ZNSt3__121__unwrap_and_dispatchB7v160006INS_10__overloadINS_11__move_loopINS_17_ClassicAlgPolicyEEENS_14__move_trivialEEENS_16reverse_iteratorIP4CardEESA_SA_Li0EEENS_4pairIT0_T2_EESC_T1_SD_, symObjAddr: 0x21A4, symBinAddr: 0x100007184, symSize: 0x12C }
  - { offsetInCU: 0x660E, offset: 0x165CD, size: 0x8, addend: 0x0, symName: __ZNSt3__114__unwrap_rangeB7v160006INS_16reverse_iteratorIP4CardEES4_EENS_4pairIT0_S6_EET_S8_, symObjAddr: 0x22D0, symBinAddr: 0x1000072B0, symSize: 0x84 }
  - { offsetInCU: 0x678A, offset: 0x16749, size: 0x8, addend: 0x0, symName: __ZNSt3__113__unwrap_iterB7v160006INS_16reverse_iteratorIP4CardEENS_18__unwrap_iter_implIS4_Lb0EEELi0EEEDTclsrT0_8__unwrapclsr3stdE7declvalIT_EEEES8_, symObjAddr: 0x23F4, symBinAddr: 0x1000073D4, symSize: 0x44 }
  - { offsetInCU: 0x67CF, offset: 0x1678E, size: 0x8, addend: 0x0, symName: __ZNSt3__19make_pairB7v160006INS_16reverse_iteratorIP4CardEES4_EENS_4pairINS_18__unwrap_ref_decayIT_E4typeENS6_IT0_E4typeEEEOS7_OSA_, symObjAddr: 0x2438, symBinAddr: 0x100007418, symSize: 0x38 }
  - { offsetInCU: 0x681E, offset: 0x167DD, size: 0x8, addend: 0x0, symName: __ZNSt3__114__rewrap_rangeB7v160006INS_16reverse_iteratorIP4CardEES4_EET_S5_T0_, symObjAddr: 0x2470, symBinAddr: 0x100007450, symSize: 0x5C }
  - { offsetInCU: 0x686A, offset: 0x16829, size: 0x8, addend: 0x0, symName: __ZNSt3__113__rewrap_iterB7v160006INS_16reverse_iteratorIP4CardEES4_NS_18__unwrap_iter_implIS4_Lb0EEEEET_S7_T0_, symObjAddr: 0x24CC, symBinAddr: 0x1000074AC, symSize: 0x74 }
  - { offsetInCU: 0x68BF, offset: 0x1687E, size: 0x8, addend: 0x0, symName: __ZNSt3__1neB7v160006IP4CardS2_EEbRKNS_16reverse_iteratorIT_EERKNS3_IT0_EE, symObjAddr: 0x2540, symBinAddr: 0x100007520, symSize: 0x48 }
  - { offsetInCU: 0x6A3C, offset: 0x169FB, size: 0x8, addend: 0x0, symName: __ZNSt3__119__libcpp_deallocateB7v160006EPvmm, symObjAddr: 0x2938, symBinAddr: 0x100007918, symSize: 0x60 }
  - { offsetInCU: 0x6AA2, offset: 0x16A61, size: 0x8, addend: 0x0, symName: __ZNSt3__127__do_deallocate_handle_sizeB7v160006IJSt11align_val_tEEEvPvmDpT_, symObjAddr: 0x2998, symBinAddr: 0x100007978, symSize: 0x30 }
  - { offsetInCU: 0x6AF7, offset: 0x16AB6, size: 0x8, addend: 0x0, symName: __ZNSt3__127__do_deallocate_handle_sizeB7v160006IJEEEvPvmDpT_, symObjAddr: 0x29C8, symBinAddr: 0x1000079A8, symSize: 0x28 }
  - { offsetInCU: 0x6B37, offset: 0x16AF6, size: 0x8, addend: 0x0, symName: __ZNSt3__124__libcpp_operator_deleteB7v160006IJPvSt11align_val_tEEEvDpT_, symObjAddr: 0x29F0, symBinAddr: 0x1000079D0, symSize: 0x2C }
  - { offsetInCU: 0x6B82, offset: 0x16B41, size: 0x8, addend: 0x0, symName: __ZNSt3__124__libcpp_operator_deleteB7v160006IJPvEEEvDpT_, symObjAddr: 0x2A1C, symBinAddr: 0x1000079FC, symSize: 0x24 }
  - { offsetInCU: 0x6BB9, offset: 0x16B78, size: 0x8, addend: 0x0, symName: __ZNSt3__14sortB7v160006INS_11__wrap_iterIP4CardEENS_6__lessIS2_S2_EEEEvT_S7_T0_, symObjAddr: 0x2A8C, symBinAddr: 0x100007A6C, symSize: 0x40 }
  - { offsetInCU: 0x6C14, offset: 0x16BD3, size: 0x8, addend: 0x0, symName: __ZNSt3__111__sort_implB7v160006INS_17_ClassicAlgPolicyENS_11__wrap_iterIP4CardEENS_6__lessIS3_S3_EEEEvT0_S8_RT1_, symObjAddr: 0x2ACC, symBinAddr: 0x100007AAC, symSize: 0x84 }
  - { offsetInCU: 0x6CBC, offset: 0x16C7B, size: 0x8, addend: 0x0, symName: __ZNSt3__123__debug_randomize_rangeB7v160006INS_17_ClassicAlgPolicyENS_11__wrap_iterIP4CardEES5_EEvT0_T1_, symObjAddr: 0x2B50, symBinAddr: 0x100007B30, symSize: 0x14 }
  - { offsetInCU: 0x6D0D, offset: 0x16CCC, size: 0x8, addend: 0x0, symName: __ZNSt3__16__sortIRNS_6__lessI4CardS2_EEPS2_EEvT0_S6_T_, symObjAddr: 0x2B64, symBinAddr: 0x100007B44, symSize: 0x68 }
  - { offsetInCU: 0x6D9E, offset: 0x16D5D, size: 0x8, addend: 0x0, symName: __ZNSt3__113__unwrap_iterB7v160006INS_11__wrap_iterIP4CardEENS_18__unwrap_iter_implIS4_Lb1EEELi0EEEDTclsrT0_8__unwrapclsr3stdE7declvalIT_EEEES8_, symObjAddr: 0x2BCC, symBinAddr: 0x100007BAC, symSize: 0x2C }
  - { offsetInCU: 0x6DE3, offset: 0x16DA2, size: 0x8, addend: 0x0, symName: __ZNSt3__17__log2iB7v160006IlEET_S1_, symObjAddr: 0x2BF8, symBinAddr: 0x100007BD8, symSize: 0x54 }
  - { offsetInCU: 0x6E88, offset: 0x16E47, size: 0x8, addend: 0x0, symName: __ZNSt3__112__libcpp_clzB7v160006Em, symObjAddr: 0x3330, symBinAddr: 0x100008310, symSize: 0x1C }
  - { offsetInCU: 0x6EB4, offset: 0x16E73, size: 0x8, addend: 0x0, symName: __ZNSt3__124__sort3_maybe_branchlessB7v160006INS_17_ClassicAlgPolicyERNS_6__lessI4CardS3_EEPS3_EENS_9enable_ifIXntsr21__use_branchless_sortIT0_T1_EE5valueEvE4typeES9_S9_S9_S8_, symObjAddr: 0x33B4, symBinAddr: 0x100008394, symSize: 0x3C }
  - { offsetInCU: 0x6F25, offset: 0x16EE4, size: 0x8, addend: 0x0, symName: __ZNSt3__124__sort4_maybe_branchlessB7v160006INS_17_ClassicAlgPolicyERNS_6__lessI4CardS3_EEPS3_EENS_9enable_ifIXntsr21__use_branchless_sortIT0_T1_EE5valueEvE4typeES9_S9_S9_S9_S8_, symObjAddr: 0x33F0, symBinAddr: 0x1000083D0, symSize: 0x44 }
  - { offsetInCU: 0x6FAA, offset: 0x16F69, size: 0x8, addend: 0x0, symName: __ZNSt3__124__sort5_maybe_branchlessB7v160006INS_17_ClassicAlgPolicyERNS_6__lessI4CardS3_EEPS3_EENS_9enable_ifIXntsr21__use_branchless_sortIT0_T1_EE5valueEvE4typeES9_S9_S9_S9_S9_S8_, symObjAddr: 0x3434, symBinAddr: 0x100008414, symSize: 0x4C }
  - { offsetInCU: 0x703E, offset: 0x16FFD, size: 0x8, addend: 0x0, symName: __ZNSt3__114__partial_sortB7v160006INS_17_ClassicAlgPolicyERNS_6__lessI4CardS3_EEPS3_S6_EET1_S7_S7_T2_RT0_, symObjAddr: 0x35C4, symBinAddr: 0x1000085A4, symSize: 0x94 }
  - { offsetInCU: 0x70C6, offset: 0x17085, size: 0x8, addend: 0x0, symName: __ZNSt3__119__sort5_wrap_policyB7v160006INS_17_ClassicAlgPolicyERNS_6__lessI4CardS3_EEPS3_EEjT1_S7_S7_S7_S7_T0_, symObjAddr: 0x3658, symBinAddr: 0x100008638, symSize: 0x54 }
  - { offsetInCU: 0x716C, offset: 0x1712B, size: 0x8, addend: 0x0, symName: __ZNSt3__17__sort3B7v160006INS_17_ClassicAlgPolicyERNS_6__lessI4CardS3_EEPS3_EEjT1_S7_S7_T0_, symObjAddr: 0x36AC, symBinAddr: 0x10000868C, symSize: 0x144 }
  - { offsetInCU: 0x71EB, offset: 0x171AA, size: 0x8, addend: 0x0, symName: __ZNSt3__19iter_swapB7v160006IP4CardS2_EEvT_T0_, symObjAddr: 0x3B18, symBinAddr: 0x100008AF8, symSize: 0x2C }
  - { offsetInCU: 0x7234, offset: 0x171F3, size: 0x8, addend: 0x0, symName: __ZNSt3__14swapB7v160006I4CardEENS_9enable_ifIXaasr21is_move_constructibleIT_EE5valuesr18is_move_assignableIS3_EE5valueEvE4typeERS3_S6_, symObjAddr: 0x3B44, symBinAddr: 0x100008B24, symSize: 0x3C }
  - { offsetInCU: 0x7285, offset: 0x17244, size: 0x8, addend: 0x0, symName: __ZNSt3__17__sort4B7v160006INS_17_ClassicAlgPolicyERNS_6__lessI4CardS3_EEPS3_EEjT1_S7_S7_S7_T0_, symObjAddr: 0x3B80, symBinAddr: 0x100008B60, symSize: 0xE4 }
  - { offsetInCU: 0x7312, offset: 0x172D1, size: 0x8, addend: 0x0, symName: __ZNSt3__123__debug_randomize_rangeB7v160006INS_17_ClassicAlgPolicyEP4CardS3_EEvT0_T1_, symObjAddr: 0x3CA8, symBinAddr: 0x100008C88, symSize: 0x14 }
  - { offsetInCU: 0x7363, offset: 0x17322, size: 0x8, addend: 0x0, symName: __ZNSt3__119__partial_sort_implB7v160006INS_17_ClassicAlgPolicyERNS_6__lessI4CardS3_EEPS3_S6_EET1_S7_S7_T2_OT0_, symObjAddr: 0x3CBC, symBinAddr: 0x100008C9C, symSize: 0x110 }
  - { offsetInCU: 0x73F9, offset: 0x173B8, size: 0x8, addend: 0x0, symName: __ZNSt3__111__make_heapB7v160006INS_17_ClassicAlgPolicyERNS_6__lessI4CardS3_EEPS3_EEvT1_S7_OT0_, symObjAddr: 0x3DCC, symBinAddr: 0x100008DAC, symSize: 0xB8 }
  - { offsetInCU: 0x749C, offset: 0x1745B, size: 0x8, addend: 0x0, symName: __ZNSt3__111__sort_heapB7v160006INS_17_ClassicAlgPolicyERNS_6__lessI4CardS3_EEPS3_EEvT1_S7_OT0_, symObjAddr: 0x4090, symBinAddr: 0x100009070, symSize: 0x90 }
  - { offsetInCU: 0x7531, offset: 0x174F0, size: 0x8, addend: 0x0, symName: __ZNSt3__110__pop_heapB7v160006INS_17_ClassicAlgPolicyENS_6__lessI4CardS3_EEPS3_EEvT1_S6_RT0_NS_15iterator_traitsIS6_E15difference_typeE, symObjAddr: 0x4120, symBinAddr: 0x100009100, symSize: 0xF4 }
  - { offsetInCU: 0x75E2, offset: 0x175A1, size: 0x8, addend: 0x0, symName: __ZNSt3__19__sift_upB7v160006INS_17_ClassicAlgPolicyERNS_6__lessI4CardS3_EEPS3_EEvT1_S7_OT0_NS_15iterator_traitsIS7_E15difference_typeE, symObjAddr: 0x4314, symBinAddr: 0x1000092F4, symSize: 0x11C }
  - { offsetInCU: 0x7693, offset: 0x17652, size: 0x8, addend: 0x0, symName: __ZNSt3__17__sort5IRNS_6__lessI4CardS2_EEPS2_EEjT0_S6_S6_S6_S6_T_, symObjAddr: 0x4430, symBinAddr: 0x100009410, symSize: 0x12C }
  - { offsetInCU: 0x7791, offset: 0x17750, size: 0x8, addend: 0x0, symName: __ZNSt3__112__to_addressB7v160006INS_11__wrap_iterIP4CardEEvEENS_5decayIDTclsr19__to_address_helperIT_EE6__callclsr3stdE7declvalIRKS6_EEEEE4typeES8_, symObjAddr: 0x4584, symBinAddr: 0x100009564, symSize: 0x24 }
  - { offsetInCU: 0x7890, offset: 0x1784F, size: 0x8, addend: 0x0, symName: __ZNSt3__1miB7v160006IPK4CardS3_EEDTmicldtfp_4baseEcldtfp0_4baseEERKNS_11__wrap_iterIT_EERKNS5_IT0_EE, symObjAddr: 0x4814, symBinAddr: 0x1000097F4, symSize: 0x48 }
  - { offsetInCU: 0x78DC, offset: 0x1789B, size: 0x8, addend: 0x0, symName: __ZNSt3__14moveB7v160006IP4CardS2_EET0_T_S4_S3_, symObjAddr: 0x48E8, symBinAddr: 0x1000098C8, symSize: 0x40 }
  - { offsetInCU: 0x7936, offset: 0x178F5, size: 0x8, addend: 0x0, symName: __ZNSt3__16__moveB7v160006INS_17_ClassicAlgPolicyEP4CardS3_S3_EENS_4pairIT0_T2_EES5_T1_S6_, symObjAddr: 0x4B58, symBinAddr: 0x100009B38, symSize: 0x44 }
  - { offsetInCU: 0x79A2, offset: 0x17961, size: 0x8, addend: 0x0, symName: __ZNSt3__123__dispatch_copy_or_moveB7v160006INS_17_ClassicAlgPolicyENS_11__move_loopIS1_EENS_14__move_trivialEP4CardS6_S6_EENS_4pairIT2_T4_EES8_T3_S9_, symObjAddr: 0x4B9C, symBinAddr: 0x100009B7C, symSize: 0x44 }
  - { offsetInCU: 0x7A20, offset: 0x179DF, size: 0x8, addend: 0x0, symName: __ZNSt3__121__unwrap_and_dispatchB7v160006INS_10__overloadINS_11__move_loopINS_17_ClassicAlgPolicyEEENS_14__move_trivialEEEP4CardS8_S8_Li0EEENS_4pairIT0_T2_EESA_T1_SB_, symObjAddr: 0x4BE0, symBinAddr: 0x100009BC0, symSize: 0xB4 }
  - { offsetInCU: 0x7AAF, offset: 0x17A6E, size: 0x8, addend: 0x0, symName: __ZNSt3__114__unwrap_rangeB7v160006IP4CardS2_EENS_4pairIT0_S4_EET_S6_, symObjAddr: 0x4C94, symBinAddr: 0x100009C74, symSize: 0x60 }
  - { offsetInCU: 0x7C47, offset: 0x17C06, size: 0x8, addend: 0x0, symName: __ZNSt3__113__unwrap_iterB7v160006IP4CardNS_18__unwrap_iter_implIS2_Lb1EEELi0EEEDTclsrT0_8__unwrapclsr3stdE7declvalIT_EEEES6_, symObjAddr: 0x4D3C, symBinAddr: 0x100009D1C, symSize: 0x24 }
  - { offsetInCU: 0x7C8C, offset: 0x17C4B, size: 0x8, addend: 0x0, symName: __ZNSt3__19make_pairB7v160006IP4CardS2_EENS_4pairINS_18__unwrap_ref_decayIT_E4typeENS4_IT0_E4typeEEEOS5_OS8_, symObjAddr: 0x4D60, symBinAddr: 0x100009D40, symSize: 0x38 }
  - { offsetInCU: 0x7CDB, offset: 0x17C9A, size: 0x8, addend: 0x0, symName: __ZNSt3__114__rewrap_rangeB7v160006IP4CardS2_EET_S3_T0_, symObjAddr: 0x4D98, symBinAddr: 0x100009D78, symSize: 0x2C }
  - { offsetInCU: 0x7D27, offset: 0x17CE6, size: 0x8, addend: 0x0, symName: __ZNSt3__113__rewrap_iterB7v160006IP4CardS2_NS_18__unwrap_iter_implIS2_Lb1EEEEET_S5_T0_, symObjAddr: 0x4DC4, symBinAddr: 0x100009DA4, symSize: 0x3C }
  - { offsetInCU: 0x7D7C, offset: 0x17D3B, size: 0x8, addend: 0x0, symName: __ZNSt3__119__copy_trivial_implB7v160006I4CardS1_EENS_4pairIPT_PT0_EES4_S4_S6_, symObjAddr: 0x4E00, symBinAddr: 0x100009DE0, symSize: 0x84 }
  - { offsetInCU: 0x7DE4, offset: 0x17DA3, size: 0x8, addend: 0x0, symName: __ZNSt3__19make_pairB7v160006IRP4CardS2_EENS_4pairINS_18__unwrap_ref_decayIT_E4typeENS5_IT0_E4typeEEEOS6_OS9_, symObjAddr: 0x4E84, symBinAddr: 0x100009E64, symSize: 0x38 }
  - { offsetInCU: 0x7E86, offset: 0x17E45, size: 0x8, addend: 0x0, symName: __ZNSt3__118__debug_db_erase_cB7v160006INS_6vectorI4CardNS_9allocatorIS2_EEEEEEvPT_, symObjAddr: 0x522C, symBinAddr: 0x10000A20C, symSize: 0x10 }
  - { offsetInCU: 0x7EB7, offset: 0x17E76, size: 0x8, addend: 0x0, symName: __ZNSt3__1neB7v160006IcNS_11char_traitsIcEENS_9allocatorIcEEEEbRKNS_12basic_stringIT_T0_T1_EEPKS6_, symObjAddr: 0x5BD8, symBinAddr: 0x10000A838, symSize: 0x34 }
  - { offsetInCU: 0x7F0F, offset: 0x17ECE, size: 0x8, addend: 0x0, symName: __ZNSt3__112__to_addressB7v160006IKcEEPT_S3_, symObjAddr: 0x6DD4, symBinAddr: 0x10000A8E8, symSize: 0x14 }
  - { offsetInCU: 0x81C4, offset: 0x18183, size: 0x8, addend: 0x0, symName: __ZSt28__throw_bad_array_new_lengthB7v160006v, symObjAddr: 0x1C40, symBinAddr: 0x100006C20, symSize: 0x34 }
  - { offsetInCU: 0x8581, offset: 0x18540, size: 0x8, addend: 0x0, symName: __ZNSt3__16vectorI4CardNS_9allocatorIS1_EEE26__swap_out_circular_bufferERNS_14__split_bufferIS1_RS3_EE, symObjAddr: 0x14B4, symBinAddr: 0x1000064B0, symSize: 0x118 }
  - { offsetInCU: 0xA3EA, offset: 0x1A3A9, size: 0x8, addend: 0x0, symName: __Z14Player_factoryRKNSt3__112basic_stringIcNS_11char_traitsIcEENS_9allocatorIcEEEES7_, symObjAddr: 0x0, symBinAddr: 0x1000050B4, symSize: 0xFC }
  - { offsetInCU: 0xA6B3, offset: 0x1A672, size: 0x8, addend: 0x0, symName: __ZN12SimplePlayerC1ERKNSt3__112basic_stringIcNS0_11char_traitsIcEENS0_9allocatorIcEEEE, symObjAddr: 0x1A8, symBinAddr: 0x1000051B0, symSize: 0x34 }
  - { offsetInCU: 0xA84B, offset: 0x1A80A, size: 0x8, addend: 0x0, symName: __ZN11HumanPlayerC1ERKNSt3__112basic_stringIcNS0_11char_traitsIcEENS0_9allocatorIcEEEE, symObjAddr: 0x1DC, symBinAddr: 0x1000051E4, symSize: 0x34 }
  - { offsetInCU: 0xA880, offset: 0x1A83F, size: 0x8, addend: 0x0, symName: __ZlsRNSt3__113basic_ostreamIcNS_11char_traitsIcEEEERK6Player, symObjAddr: 0x210, symBinAddr: 0x100005218, symSize: 0x48 }
  - { offsetInCU: 0xA8BE, offset: 0x1A87D, size: 0x8, addend: 0x0, symName: __ZN12SimplePlayerC2ERKNSt3__112basic_stringIcNS0_11char_traitsIcEENS0_9allocatorIcEEEE, symObjAddr: 0x2A4, symBinAddr: 0x1000052AC, symSize: 0x8C }
  - { offsetInCU: 0xA8F4, offset: 0x1A8B3, size: 0x8, addend: 0x0, symName: __ZN6PlayerC2Ev, symObjAddr: 0x330, symBinAddr: 0x100005338, symSize: 0x24 }
  - { offsetInCU: 0xA91F, offset: 0x1A8DE, size: 0x8, addend: 0x0, symName: __ZNSt3__16vectorI4CardNS_9allocatorIS1_EEEC1B7v160006Ev, symObjAddr: 0x354, symBinAddr: 0x10000535C, symSize: 0x2C }
  - { offsetInCU: 0xA947, offset: 0x1A906, size: 0x8, addend: 0x0, symName: __ZN6PlayerD2Ev, symObjAddr: 0x380, symBinAddr: 0x100005388, symSize: 0x14 }
  - { offsetInCU: 0xA970, offset: 0x1A92F, size: 0x8, addend: 0x0, symName: __ZNK12SimplePlayer8get_nameEv, symObjAddr: 0x394, symBinAddr: 0x10000539C, symSize: 0x18 }
  - { offsetInCU: 0xA995, offset: 0x1A954, size: 0x8, addend: 0x0, symName: __ZN12SimplePlayer8add_cardERK4Card, symObjAddr: 0x3AC, symBinAddr: 0x1000053B4, symSize: 0x60 }
  - { offsetInCU: 0xA9C7, offset: 0x1A986, size: 0x8, addend: 0x0, symName: __ZNK12SimplePlayer10make_trumpERK4CardbiR4Suit, symObjAddr: 0x40C, symBinAddr: 0x100005414, symSize: 0x268 }
  - { offsetInCU: 0xAAA1, offset: 0x1AA60, size: 0x8, addend: 0x0, symName: __ZN12SimplePlayer15add_and_discardERK4Card, symObjAddr: 0x674, symBinAddr: 0x10000567C, symSize: 0x140 }
  - { offsetInCU: 0xAB0B, offset: 0x1AACA, size: 0x8, addend: 0x0, symName: __ZN12SimplePlayer9lead_cardE4Suit, symObjAddr: 0x7B4, symBinAddr: 0x1000057BC, symSize: 0x260 }
  - { offsetInCU: 0xABBB, offset: 0x1AB7A, size: 0x8, addend: 0x0, symName: __ZN12SimplePlayer9play_cardERK4Card4Suit, symObjAddr: 0xA14, symBinAddr: 0x100005A1C, symSize: 0x320 }
  - { offsetInCU: 0xACCF, offset: 0x1AC8E, size: 0x8, addend: 0x0, symName: __ZN12SimplePlayerD1Ev, symObjAddr: 0xD34, symBinAddr: 0x100005D3C, symSize: 0x2C }
  - { offsetInCU: 0xACFA, offset: 0x1ACB9, size: 0x8, addend: 0x0, symName: __ZN12SimplePlayerD0Ev, symObjAddr: 0xD60, symBinAddr: 0x100005D68, symSize: 0x30 }
  - { offsetInCU: 0xAD25, offset: 0x1ACE4, size: 0x8, addend: 0x0, symName: __ZN6PlayerD1Ev, symObjAddr: 0xD90, symBinAddr: 0x100005D98, symSize: 0x14 }
  - { offsetInCU: 0xAD4E, offset: 0x1AD0D, size: 0x8, addend: 0x0, symName: __ZN6PlayerD0Ev, symObjAddr: 0xDA4, symBinAddr: 0x100005DAC, symSize: 0xC }
  - { offsetInCU: 0xAD77, offset: 0x1AD36, size: 0x8, addend: 0x0, symName: __ZNSt3__16vectorI4CardNS_9allocatorIS1_EEEC2B7v160006Ev, symObjAddr: 0xDB0, symBinAddr: 0x100005DB8, symSize: 0x58 }
  - { offsetInCU: 0xADA9, offset: 0x1AD68, size: 0x8, addend: 0x0, symName: __ZNSt3__117__compressed_pairIP4CardNS_9allocatorIS1_EEEC1B7v160006IDnNS_18__default_init_tagEEEOT_OT0_, symObjAddr: 0xE08, symBinAddr: 0x100005E10, symSize: 0x3C }
  - { offsetInCU: 0xADFF, offset: 0x1ADBE, size: 0x8, addend: 0x0, symName: __ZNSt3__117__compressed_pairIP4CardNS_9allocatorIS1_EEEC2B7v160006IDnNS_18__default_init_tagEEEOT_OT0_, symObjAddr: 0xE60, symBinAddr: 0x100005E5C, symSize: 0x40 }
  - { offsetInCU: 0xAE55, offset: 0x1AE14, size: 0x8, addend: 0x0, symName: __ZNSt3__122__compressed_pair_elemIP4CardLi0ELb0EEC2B7v160006IDnvEEOT_, symObjAddr: 0xEA0, symBinAddr: 0x100005E9C, symSize: 0x1C }
  - { offsetInCU: 0xAE96, offset: 0x1AE55, size: 0x8, addend: 0x0, symName: __ZNSt3__122__compressed_pair_elemINS_9allocatorI4CardEELi1ELb1EEC2B7v160006ENS_18__default_init_tagE, symObjAddr: 0xEBC, symBinAddr: 0x100005EB8, symSize: 0x2C }
  - { offsetInCU: 0xAEC9, offset: 0x1AE88, size: 0x8, addend: 0x0, symName: __ZNSt3__19allocatorI4CardEC2B7v160006Ev, symObjAddr: 0xEE8, symBinAddr: 0x100005EE4, symSize: 0x2C }
  - { offsetInCU: 0xAEF1, offset: 0x1AEB0, size: 0x8, addend: 0x0, symName: __ZNSt3__116__non_trivial_ifILb1ENS_9allocatorI4CardEEEC2B7v160006Ev, symObjAddr: 0xF14, symBinAddr: 0x100005F10, symSize: 0x14 }
  - { offsetInCU: 0xAF1A, offset: 0x1AED9, size: 0x8, addend: 0x0, symName: __ZNSt3__16vectorI4CardNS_9allocatorIS1_EEE9push_backB7v160006ERKS1_, symObjAddr: 0xF28, symBinAddr: 0x100005F24, symSize: 0x6C }
  - { offsetInCU: 0xAF50, offset: 0x1AF0F, size: 0x8, addend: 0x0, symName: __ZNSt3__16vectorI4CardNS_9allocatorIS1_EEE5beginB7v160006Ev, symObjAddr: 0xFD0, symBinAddr: 0x100005FCC, symSize: 0x30 }
  - { offsetInCU: 0xAF77, offset: 0x1AF36, size: 0x8, addend: 0x0, symName: __ZNSt3__16vectorI4CardNS_9allocatorIS1_EEE3endB7v160006Ev, symObjAddr: 0x1000, symBinAddr: 0x100005FFC, symSize: 0x30 }
  - { offsetInCU: 0xAF9E, offset: 0x1AF5D, size: 0x8, addend: 0x0, symName: __ZNSt3__16vectorI4CardNS_9allocatorIS1_EEE9__end_capB7v160006Ev, symObjAddr: 0x1030, symBinAddr: 0x10000602C, symSize: 0x28 }
  - { offsetInCU: 0xAFC2, offset: 0x1AF81, size: 0x8, addend: 0x0, symName: __ZNSt3__16vectorI4CardNS_9allocatorIS1_EEE22__construct_one_at_endB7v160006IJRKS1_EEEvDpOT_, symObjAddr: 0x1058, symBinAddr: 0x100006054, symSize: 0x90 }
  - { offsetInCU: 0xB010, offset: 0x1AFCF, size: 0x8, addend: 0x0, symName: __ZNSt3__16vectorI4CardNS_9allocatorIS1_EEE21__push_back_slow_pathIRKS1_EEvOT_, symObjAddr: 0x10E8, symBinAddr: 0x1000060E4, symSize: 0xD8 }
  - { offsetInCU: 0xB06D, offset: 0x1B02C, size: 0x8, addend: 0x0, symName: __ZNSt3__117__compressed_pairIP4CardNS_9allocatorIS1_EEE5firstB7v160006Ev, symObjAddr: 0x11C0, symBinAddr: 0x1000061BC, symSize: 0x24 }
  - { offsetInCU: 0xB091, offset: 0x1B050, size: 0x8, addend: 0x0, symName: __ZNSt3__122__compressed_pair_elemIP4CardLi0ELb0EE5__getB7v160006Ev, symObjAddr: 0x11E4, symBinAddr: 0x1000061E0, symSize: 0x14 }
  - { offsetInCU: 0xB0CF, offset: 0x1B08E, size: 0x8, addend: 0x0, symName: __ZNSt3__16vectorI4CardNS_9allocatorIS1_EEE21_ConstructTransactionC1B7v160006ERS4_m, symObjAddr: 0x11F8, symBinAddr: 0x1000061F4, symSize: 0x3C }
  - { offsetInCU: 0xB115, offset: 0x1B0D4, size: 0x8, addend: 0x0, symName: __ZNSt3__116allocator_traitsINS_9allocatorI4CardEEE9constructB7v160006IS2_JRKS2_EvEEvRS3_PT_DpOT0_, symObjAddr: 0x1234, symBinAddr: 0x100006230, symSize: 0x34 }
  - { offsetInCU: 0xB16D, offset: 0x1B12C, size: 0x8, addend: 0x0, symName: __ZNSt3__16vectorI4CardNS_9allocatorIS1_EEE7__allocB7v160006Ev, symObjAddr: 0x1268, symBinAddr: 0x100006264, symSize: 0x28 }
  - { offsetInCU: 0xB191, offset: 0x1B150, size: 0x8, addend: 0x0, symName: __ZNSt3__16vectorI4CardNS_9allocatorIS1_EEE21_ConstructTransactionD1B7v160006Ev, symObjAddr: 0x12A4, symBinAddr: 0x1000062A0, symSize: 0x2C }
  - { offsetInCU: 0xB1B9, offset: 0x1B178, size: 0x8, addend: 0x0, symName: __ZNSt3__16vectorI4CardNS_9allocatorIS1_EEE21_ConstructTransactionC2B7v160006ERS4_m, symObjAddr: 0x12D0, symBinAddr: 0x1000062CC, symSize: 0x44 }
  - { offsetInCU: 0xB200, offset: 0x1B1BF, size: 0x8, addend: 0x0, symName: __ZNSt3__19allocatorI4CardE9constructB7v160006IS1_JRKS1_EEEvPT_DpOT0_, symObjAddr: 0x1314, symBinAddr: 0x100006310, symSize: 0x28 }
  - { offsetInCU: 0xB256, offset: 0x1B215, size: 0x8, addend: 0x0, symName: __ZNSt3__117__compressed_pairIP4CardNS_9allocatorIS1_EEE6secondB7v160006Ev, symObjAddr: 0x133C, symBinAddr: 0x100006338, symSize: 0x24 }
  - { offsetInCU: 0xB27A, offset: 0x1B239, size: 0x8, addend: 0x0, symName: __ZNSt3__122__compressed_pair_elemINS_9allocatorI4CardEELi1ELb1EE5__getB7v160006Ev, symObjAddr: 0x1360, symBinAddr: 0x10000635C, symSize: 0x14 }
  - { offsetInCU: 0xB29F, offset: 0x1B25E, size: 0x8, addend: 0x0, symName: __ZNSt3__16vectorI4CardNS_9allocatorIS1_EEE21_ConstructTransactionD2B7v160006Ev, symObjAddr: 0x1374, symBinAddr: 0x100006370, symSize: 0x20 }
  - { offsetInCU: 0xB2C8, offset: 0x1B287, size: 0x8, addend: 0x0, symName: __ZNKSt3__16vectorI4CardNS_9allocatorIS1_EEE11__recommendB7v160006Em, symObjAddr: 0x1394, symBinAddr: 0x100006390, symSize: 0xB4 }
  - { offsetInCU: 0xB31C, offset: 0x1B2DB, size: 0x8, addend: 0x0, symName: __ZNKSt3__16vectorI4CardNS_9allocatorIS1_EEE4sizeB7v160006Ev, symObjAddr: 0x1448, symBinAddr: 0x100006444, symSize: 0x28 }
  - { offsetInCU: 0xB341, offset: 0x1B300, size: 0x8, addend: 0x0, symName: __ZNSt3__114__split_bufferI4CardRNS_9allocatorIS1_EEEC1EmmS4_, symObjAddr: 0x1470, symBinAddr: 0x10000646C, symSize: 0x44 }
  - { offsetInCU: 0xB396, offset: 0x1B355, size: 0x8, addend: 0x0, symName: __ZNSt3__114__split_bufferI4CardRNS_9allocatorIS1_EEED1Ev, symObjAddr: 0x15CC, symBinAddr: 0x1000065C8, symSize: 0x2C }
  - { offsetInCU: 0xB3C1, offset: 0x1B380, size: 0x8, addend: 0x0, symName: __ZNKSt3__16vectorI4CardNS_9allocatorIS1_EEE8max_sizeEv, symObjAddr: 0x15F8, symBinAddr: 0x1000065F4, symSize: 0x60 }
  - { offsetInCU: 0xB3E8, offset: 0x1B3A7, size: 0x8, addend: 0x0, symName: __ZNKSt3__16vectorI4CardNS_9allocatorIS1_EEE20__throw_length_errorB7v160006Ev, symObjAddr: 0x1658, symBinAddr: 0x100006654, symSize: 0x1C }
  - { offsetInCU: 0xB40C, offset: 0x1B3CB, size: 0x8, addend: 0x0, symName: __ZNKSt3__16vectorI4CardNS_9allocatorIS1_EEE8capacityB7v160006Ev, symObjAddr: 0x1674, symBinAddr: 0x100006670, symSize: 0x40 }
  - { offsetInCU: 0xB43A, offset: 0x1B3F9, size: 0x8, addend: 0x0, symName: __ZNSt3__116allocator_traitsINS_9allocatorI4CardEEE8max_sizeB7v160006IS3_vEEmRKS3_, symObjAddr: 0x170C, symBinAddr: 0x100006708, symSize: 0x24 }
  - { offsetInCU: 0xB468, offset: 0x1B427, size: 0x8, addend: 0x0, symName: __ZNKSt3__16vectorI4CardNS_9allocatorIS1_EEE7__allocB7v160006Ev, symObjAddr: 0x1730, symBinAddr: 0x10000672C, symSize: 0x28 }
  - { offsetInCU: 0xB4A0, offset: 0x1B45F, size: 0x8, addend: 0x0, symName: __ZNKSt3__16__lessImmEclB7v160006ERKmS3_, symObjAddr: 0x17C0, symBinAddr: 0x1000067A8, symSize: 0x34 }
  - { offsetInCU: 0xB4E1, offset: 0x1B4A0, size: 0x8, addend: 0x0, symName: __ZNKSt3__19allocatorI4CardE8max_sizeB7v160006Ev, symObjAddr: 0x17F4, symBinAddr: 0x1000067DC, symSize: 0x14 }
  - { offsetInCU: 0xB506, offset: 0x1B4C5, size: 0x8, addend: 0x0, symName: __ZNKSt3__117__compressed_pairIP4CardNS_9allocatorIS1_EEE6secondB7v160006Ev, symObjAddr: 0x1808, symBinAddr: 0x1000067F0, symSize: 0x24 }
  - { offsetInCU: 0xB52A, offset: 0x1B4E9, size: 0x8, addend: 0x0, symName: __ZNKSt3__122__compressed_pair_elemINS_9allocatorI4CardEELi1ELb1EE5__getB7v160006Ev, symObjAddr: 0x182C, symBinAddr: 0x100006814, symSize: 0x14 }
  - { offsetInCU: 0xB54F, offset: 0x1B50E, size: 0x8, addend: 0x0, symName: __ZNSt12length_errorC1B7v160006EPKc, symObjAddr: 0x18AC, symBinAddr: 0x10000688C, symSize: 0x34 }
  - { offsetInCU: 0xB585, offset: 0x1B544, size: 0x8, addend: 0x0, symName: __ZNSt12length_errorC2B7v160006EPKc, symObjAddr: 0x18E0, symBinAddr: 0x1000068C0, symSize: 0x4C }
  - { offsetInCU: 0xB5BB, offset: 0x1B57A, size: 0x8, addend: 0x0, symName: __ZNKSt3__16vectorI4CardNS_9allocatorIS1_EEE9__end_capB7v160006Ev, symObjAddr: 0x192C, symBinAddr: 0x10000690C, symSize: 0x28 }
  - { offsetInCU: 0xB5DF, offset: 0x1B59E, size: 0x8, addend: 0x0, symName: __ZNKSt3__117__compressed_pairIP4CardNS_9allocatorIS1_EEE5firstB7v160006Ev, symObjAddr: 0x1954, symBinAddr: 0x100006934, symSize: 0x24 }
  - { offsetInCU: 0xB603, offset: 0x1B5C2, size: 0x8, addend: 0x0, symName: __ZNKSt3__122__compressed_pair_elemIP4CardLi0ELb0EE5__getB7v160006Ev, symObjAddr: 0x1978, symBinAddr: 0x100006958, symSize: 0x14 }
  - { offsetInCU: 0xB628, offset: 0x1B5E7, size: 0x8, addend: 0x0, symName: __ZNSt3__114__split_bufferI4CardRNS_9allocatorIS1_EEEC2EmmS4_, symObjAddr: 0x19E0, symBinAddr: 0x1000069C0, symSize: 0xD4 }
  - { offsetInCU: 0xB69A, offset: 0x1B659, size: 0x8, addend: 0x0, symName: __ZNSt3__117__compressed_pairIP4CardRNS_9allocatorIS1_EEEC1B7v160006IDnS5_EEOT_OT0_, symObjAddr: 0x1AB4, symBinAddr: 0x100006A94, symSize: 0x3C }
  - { offsetInCU: 0xB6F0, offset: 0x1B6AF, size: 0x8, addend: 0x0, symName: __ZNSt3__114__split_bufferI4CardRNS_9allocatorIS1_EEE7__allocB7v160006Ev, symObjAddr: 0x1B30, symBinAddr: 0x100006B10, symSize: 0x28 }
  - { offsetInCU: 0xB714, offset: 0x1B6D3, size: 0x8, addend: 0x0, symName: __ZNSt3__114__split_bufferI4CardRNS_9allocatorIS1_EEE9__end_capB7v160006Ev, symObjAddr: 0x1B58, symBinAddr: 0x100006B38, symSize: 0x28 }
  - { offsetInCU: 0xB738, offset: 0x1B6F7, size: 0x8, addend: 0x0, symName: __ZNSt3__117__compressed_pairIP4CardRNS_9allocatorIS1_EEEC2B7v160006IDnS5_EEOT_OT0_, symObjAddr: 0x1B80, symBinAddr: 0x100006B60, symSize: 0x48 }
  - { offsetInCU: 0xB78E, offset: 0x1B74D, size: 0x8, addend: 0x0, symName: __ZNSt3__122__compressed_pair_elemIRNS_9allocatorI4CardEELi1ELb0EEC2B7v160006IS4_vEEOT_, symObjAddr: 0x1BC8, symBinAddr: 0x100006BA8, symSize: 0x20 }
  - { offsetInCU: 0xB7CF, offset: 0x1B78E, size: 0x8, addend: 0x0, symName: __ZNSt3__19allocatorI4CardE8allocateB7v160006Em, symObjAddr: 0x1BE8, symBinAddr: 0x100006BC8, symSize: 0x58 }
  - { offsetInCU: 0xB801, offset: 0x1B7C0, size: 0x8, addend: 0x0, symName: __ZNSt3__117__compressed_pairIP4CardRNS_9allocatorIS1_EEE6secondB7v160006Ev, symObjAddr: 0x1D44, symBinAddr: 0x100006D24, symSize: 0x28 }
  - { offsetInCU: 0xB825, offset: 0x1B7E4, size: 0x8, addend: 0x0, symName: __ZNSt3__122__compressed_pair_elemIRNS_9allocatorI4CardEELi1ELb0EE5__getB7v160006Ev, symObjAddr: 0x1D6C, symBinAddr: 0x100006D4C, symSize: 0x18 }
  - { offsetInCU: 0xB84A, offset: 0x1B809, size: 0x8, addend: 0x0, symName: __ZNSt3__117__compressed_pairIP4CardRNS_9allocatorIS1_EEE5firstB7v160006Ev, symObjAddr: 0x1D84, symBinAddr: 0x100006D64, symSize: 0x24 }
  - { offsetInCU: 0xB86E, offset: 0x1B82D, size: 0x8, addend: 0x0, symName: __ZNKSt3__16vectorI4CardNS_9allocatorIS1_EEE17__annotate_deleteB7v160006Ev, symObjAddr: 0x1DA8, symBinAddr: 0x100006D88, symSize: 0xB8 }
  - { offsetInCU: 0xB892, offset: 0x1B851, size: 0x8, addend: 0x0, symName: __ZNSt3__116reverse_iteratorIP4CardEC1B7v160006ES2_, symObjAddr: 0x1ED8, symBinAddr: 0x100006EB8, symSize: 0x34 }
  - { offsetInCU: 0xB8C8, offset: 0x1B887, size: 0x8, addend: 0x0, symName: __ZNKSt3__116reverse_iteratorIP4CardE4baseB7v160006Ev, symObjAddr: 0x1F0C, symBinAddr: 0x100006EEC, symSize: 0x18 }
  - { offsetInCU: 0xB8ED, offset: 0x1B8AC, size: 0x8, addend: 0x0, symName: __ZNKSt3__16vectorI4CardNS_9allocatorIS1_EEE14__annotate_newB7v160006Em, symObjAddr: 0x1F60, symBinAddr: 0x100006F40, symSize: 0xAC }
  - { offsetInCU: 0xB920, offset: 0x1B8DF, size: 0x8, addend: 0x0, symName: __ZNKSt3__16vectorI4CardNS_9allocatorIS1_EEE31__annotate_contiguous_containerB7v160006EPKvS6_S6_S6_, symObjAddr: 0x201C, symBinAddr: 0x100006FFC, symSize: 0x20 }
  - { offsetInCU: 0xB975, offset: 0x1B934, size: 0x8, addend: 0x0, symName: __ZNKSt3__16vectorI4CardNS_9allocatorIS1_EEE4dataB7v160006Ev, symObjAddr: 0x203C, symBinAddr: 0x10000701C, symSize: 0x28 }
  - { offsetInCU: 0xB9BC, offset: 0x1B97B, size: 0x8, addend: 0x0, symName: __ZNKSt3__111__move_loopINS_17_ClassicAlgPolicyEEclB7v160006INS_16reverse_iteratorIP4CardEES7_S7_EENS_4pairIT_T1_EES9_T0_SA_, symObjAddr: 0x2354, symBinAddr: 0x100007334, symSize: 0xA0 }
  - { offsetInCU: 0xBA2A, offset: 0x1B9E9, size: 0x8, addend: 0x0, symName: __ZNSt3__18_IterOpsINS_17_ClassicAlgPolicyEE11__iter_moveB7v160006IRNS_16reverse_iteratorIP4CardEEEENS_9enable_ifIXsr12is_referenceIDTdeclsr3stdE7declvalIRT_EEEEE5valueEDTclsr3stdE4movedeclsr3stdE7declvalISB_EEEEE4typeEOSA_, symObjAddr: 0x2588, symBinAddr: 0x100007568, symSize: 0x28 }
  - { offsetInCU: 0xBA56, offset: 0x1BA15, size: 0x8, addend: 0x0, symName: __ZNKSt3__116reverse_iteratorIP4CardEdeB7v160006Ev, symObjAddr: 0x25B0, symBinAddr: 0x100007590, symSize: 0x28 }
  - { offsetInCU: 0xBA89, offset: 0x1BA48, size: 0x8, addend: 0x0, symName: __ZNSt3__116reverse_iteratorIP4CardEppB7v160006Ev, symObjAddr: 0x25D8, symBinAddr: 0x1000075B8, symSize: 0x20 }
  - { offsetInCU: 0xBAAE, offset: 0x1BA6D, size: 0x8, addend: 0x0, symName: __ZNSt3__18_IterOpsINS_17_ClassicAlgPolicyEE25__validate_iter_referenceB7v160006IRNS_16reverse_iteratorIP4CardEEEEvv, symObjAddr: 0x25F8, symBinAddr: 0x1000075D8, symSize: 0x4 }
  - { offsetInCU: 0xBACC, offset: 0x1BA8B, size: 0x8, addend: 0x0, symName: __ZNSt3__118__unwrap_iter_implINS_16reverse_iteratorIP4CardEELb0EE8__unwrapB7v160006ES4_, symObjAddr: 0x25FC, symBinAddr: 0x1000075DC, symSize: 0x24 }
  - { offsetInCU: 0xBAF4, offset: 0x1BAB3, size: 0x8, addend: 0x0, symName: __ZNSt3__14pairINS_16reverse_iteratorIP4CardEES4_EC1B7v160006IS4_S4_LPv0EEEOT_OT0_, symObjAddr: 0x2620, symBinAddr: 0x100007600, symSize: 0x3C }
  - { offsetInCU: 0xBB51, offset: 0x1BB10, size: 0x8, addend: 0x0, symName: __ZNSt3__14pairINS_16reverse_iteratorIP4CardEES4_EC2B7v160006IS4_S4_LPv0EEEOT_OT0_, symObjAddr: 0x265C, symBinAddr: 0x10000763C, symSize: 0x34 }
  - { offsetInCU: 0xBBAF, offset: 0x1BB6E, size: 0x8, addend: 0x0, symName: __ZNSt3__118__unwrap_iter_implINS_16reverse_iteratorIP4CardEELb0EE8__rewrapB7v160006ES4_S4_, symObjAddr: 0x2690, symBinAddr: 0x100007670, symSize: 0x2C }
  - { offsetInCU: 0xBBDD, offset: 0x1BB9C, size: 0x8, addend: 0x0, symName: __ZNSt3__116reverse_iteratorIP4CardEC2B7v160006ES2_, symObjAddr: 0x26BC, symBinAddr: 0x10000769C, symSize: 0x28 }
  - { offsetInCU: 0xBC14, offset: 0x1BBD3, size: 0x8, addend: 0x0, symName: __ZNSt3__114__split_bufferI4CardRNS_9allocatorIS1_EEED2Ev, symObjAddr: 0x26E4, symBinAddr: 0x1000076C4, symSize: 0x8C }
  - { offsetInCU: 0xBC3F, offset: 0x1BBFE, size: 0x8, addend: 0x0, symName: __ZNSt3__114__split_bufferI4CardRNS_9allocatorIS1_EEE5clearB7v160006Ev, symObjAddr: 0x2770, symBinAddr: 0x100007750, symSize: 0x28 }
  - { offsetInCU: 0xBC63, offset: 0x1BC22, size: 0x8, addend: 0x0, symName: __ZNSt3__116allocator_traitsINS_9allocatorI4CardEEE10deallocateB7v160006ERS3_PS2_m, symObjAddr: 0x2798, symBinAddr: 0x100007778, symSize: 0x34 }
  - { offsetInCU: 0xBCA5, offset: 0x1BC64, size: 0x8, addend: 0x0, symName: __ZNKSt3__114__split_bufferI4CardRNS_9allocatorIS1_EEE8capacityB7v160006Ev, symObjAddr: 0x27CC, symBinAddr: 0x1000077AC, symSize: 0x40 }
  - { offsetInCU: 0xBCC9, offset: 0x1BC88, size: 0x8, addend: 0x0, symName: __ZNSt3__114__split_bufferI4CardRNS_9allocatorIS1_EEE17__destruct_at_endB7v160006EPS1_, symObjAddr: 0x280C, symBinAddr: 0x1000077EC, symSize: 0x2C }
  - { offsetInCU: 0xBCFB, offset: 0x1BCBA, size: 0x8, addend: 0x0, symName: __ZNSt3__114__split_bufferI4CardRNS_9allocatorIS1_EEE17__destruct_at_endB7v160006EPS1_NS_17integral_constantIbLb0EEE, symObjAddr: 0x2838, symBinAddr: 0x100007818, symSize: 0x80 }
  - { offsetInCU: 0xBD3B, offset: 0x1BCFA, size: 0x8, addend: 0x0, symName: __ZNSt3__116allocator_traitsINS_9allocatorI4CardEEE7destroyB7v160006IS2_vEEvRS3_PT_, symObjAddr: 0x28B8, symBinAddr: 0x100007898, symSize: 0x2C }
  - { offsetInCU: 0xBD78, offset: 0x1BD37, size: 0x8, addend: 0x0, symName: __ZNSt3__19allocatorI4CardE7destroyB7v160006EPS1_, symObjAddr: 0x28E4, symBinAddr: 0x1000078C4, symSize: 0x14 }
  - { offsetInCU: 0xBDAB, offset: 0x1BD6A, size: 0x8, addend: 0x0, symName: __ZNSt3__19allocatorI4CardE10deallocateB7v160006EPS1_m, symObjAddr: 0x28F8, symBinAddr: 0x1000078D8, symSize: 0x40 }
  - { offsetInCU: 0xBDEB, offset: 0x1BDAA, size: 0x8, addend: 0x0, symName: __ZNKSt3__114__split_bufferI4CardRNS_9allocatorIS1_EEE9__end_capB7v160006Ev, symObjAddr: 0x2A40, symBinAddr: 0x100007A20, symSize: 0x28 }
  - { offsetInCU: 0xBE0F, offset: 0x1BDCE, size: 0x8, addend: 0x0, symName: __ZNKSt3__117__compressed_pairIP4CardRNS_9allocatorIS1_EEE5firstB7v160006Ev, symObjAddr: 0x2A68, symBinAddr: 0x100007A48, symSize: 0x24 }
  - { offsetInCU: 0xBE42, offset: 0x1BE01, size: 0x8, addend: 0x0, symName: __ZNSt3__116_UnwrapAlgPolicyIRNS_6__lessI4CardS2_EEE10__get_compB7v160006ES4_, symObjAddr: 0x2C4C, symBinAddr: 0x100007C2C, symSize: 0x14 }
  - { offsetInCU: 0xBE65, offset: 0x1BE24, size: 0x8, addend: 0x0, symName: __ZNKSt3__16__lessI4CardS1_EclB7v160006ERKS1_S4_, symObjAddr: 0x334C, symBinAddr: 0x10000832C, symSize: 0x34 }
  - { offsetInCU: 0xBEA5, offset: 0x1BE64, size: 0x8, addend: 0x0, symName: __ZNSt3__18_IterOpsINS_17_ClassicAlgPolicyEE9iter_swapB7v160006IRP4CardS6_EEvOT_OT0_, symObjAddr: 0x3380, symBinAddr: 0x100008360, symSize: 0x34 }
  - { offsetInCU: 0xBEE8, offset: 0x1BEA7, size: 0x8, addend: 0x0, symName: __ZNSt3__18_IterOpsINS_17_ClassicAlgPolicyEE11__iter_moveB7v160006IRP4CardEENS_9enable_ifIXsr12is_referenceIDTdeclsr3stdE7declvalIRT_EEEEE5valueEDTclsr3stdE4movedeclsr3stdE7declvalIS9_EEEEE4typeEOS8_, symObjAddr: 0x3C64, symBinAddr: 0x100008C44, symSize: 0x28 }
  - { offsetInCU: 0xBF14, offset: 0x1BED3, size: 0x8, addend: 0x0, symName: __ZNSt3__18_IterOpsINS_17_ClassicAlgPolicyEE25__validate_iter_referenceB7v160006IRP4CardEEvv, symObjAddr: 0x3C8C, symBinAddr: 0x100008C6C, symSize: 0x4 }
  - { offsetInCU: 0xBF32, offset: 0x1BEF1, size: 0x8, addend: 0x0, symName: __ZNSt3__18_IterOpsINS_17_ClassicAlgPolicyEE4nextB7v160006IP4CardEET_S6_S6_, symObjAddr: 0x3C90, symBinAddr: 0x100008C70, symSize: 0x18 }
  - { offsetInCU: 0xBF69, offset: 0x1BF28, size: 0x8, addend: 0x0, symName: __ZNSt3__118__unwrap_iter_implINS_11__wrap_iterIP4CardEELb1EE8__unwrapB7v160006ES4_, symObjAddr: 0x455C, symBinAddr: 0x10000953C, symSize: 0x28 }
  - { offsetInCU: 0xBF96, offset: 0x1BF55, size: 0x8, addend: 0x0, symName: __ZNSt3__119__to_address_helperINS_11__wrap_iterIP4CardEEvE6__callB7v160006ERKS4_, symObjAddr: 0x45A8, symBinAddr: 0x100009588, symSize: 0x30 }
  - { offsetInCU: 0xBFB9, offset: 0x1BF78, size: 0x8, addend: 0x0, symName: __ZNSt3__114pointer_traitsINS_11__wrap_iterIP4CardEEE10to_addressB7v160006ES4_, symObjAddr: 0x45D8, symBinAddr: 0x1000095B8, symSize: 0x2C }
  - { offsetInCU: 0xBFDD, offset: 0x1BF9C, size: 0x8, addend: 0x0, symName: __ZNKSt3__111__wrap_iterIP4CardE4baseB7v160006Ev, symObjAddr: 0x4604, symBinAddr: 0x1000095E4, symSize: 0x18 }
  - { offsetInCU: 0xC002, offset: 0x1BFC1, size: 0x8, addend: 0x0, symName: __ZNSt3__16vectorI4CardNS_9allocatorIS1_EEE11__make_iterB7v160006EPS1_, symObjAddr: 0x461C, symBinAddr: 0x1000095FC, symSize: 0x34 }
  - { offsetInCU: 0xC035, offset: 0x1BFF4, size: 0x8, addend: 0x0, symName: __ZNSt3__111__wrap_iterIP4CardEC1B7v160006EPKvS2_, symObjAddr: 0x4650, symBinAddr: 0x100009630, symSize: 0x3C }
  - { offsetInCU: 0xC079, offset: 0x1C038, size: 0x8, addend: 0x0, symName: __ZNSt3__111__wrap_iterIP4CardEC2B7v160006EPKvS2_, symObjAddr: 0x468C, symBinAddr: 0x10000966C, symSize: 0x24 }
  - { offsetInCU: 0xC0BE, offset: 0x1C07D, size: 0x8, addend: 0x0, symName: __ZNKSt3__16vectorI4CardNS_9allocatorIS1_EEEixB7v160006Em, symObjAddr: 0x46B0, symBinAddr: 0x100009690, symSize: 0x24 }
  - { offsetInCU: 0xC0F4, offset: 0x1C0B3, size: 0x8, addend: 0x0, symName: __ZNSt3__16vectorI4CardNS_9allocatorIS1_EEEixB7v160006Em, symObjAddr: 0x46D4, symBinAddr: 0x1000096B4, symSize: 0x24 }
  - { offsetInCU: 0xC12A, offset: 0x1C0E9, size: 0x8, addend: 0x0, symName: __ZNSt3__16vectorI4CardNS_9allocatorIS1_EEE5eraseB7v160006ENS_11__wrap_iterIPKS1_EE, symObjAddr: 0x46F8, symBinAddr: 0x1000096D8, symSize: 0xA4 }
  - { offsetInCU: 0xC17E, offset: 0x1C13D, size: 0x8, addend: 0x0, symName: __ZNKSt3__111__wrap_iterIP4CardEplB7v160006El, symObjAddr: 0x479C, symBinAddr: 0x10000977C, symSize: 0x3C }
  - { offsetInCU: 0xC1C3, offset: 0x1C182, size: 0x8, addend: 0x0, symName: __ZNSt3__111__wrap_iterIPK4CardEC1B7v160006IPS1_EERKNS0_IT_EEPNS_9enable_ifIXsr14is_convertibleIS7_S3_EE5valueEvE4typeE, symObjAddr: 0x47D8, symBinAddr: 0x1000097B8, symSize: 0x3C }
  - { offsetInCU: 0xC20D, offset: 0x1C1CC, size: 0x8, addend: 0x0, symName: __ZNKSt3__16vectorI4CardNS_9allocatorIS1_EEE6cbeginB7v160006Ev, symObjAddr: 0x485C, symBinAddr: 0x10000983C, symSize: 0x2C }
  - { offsetInCU: 0xC231, offset: 0x1C1F0, size: 0x8, addend: 0x0, symName: __ZNSt3__16vectorI4CardNS_9allocatorIS1_EEE17__destruct_at_endB7v160006EPS1_, symObjAddr: 0x4888, symBinAddr: 0x100009868, symSize: 0x60 }
  - { offsetInCU: 0xC273, offset: 0x1C232, size: 0x8, addend: 0x0, symName: __ZNSt3__16vectorI4CardNS_9allocatorIS1_EEE27__invalidate_iterators_pastB7v160006EPS1_, symObjAddr: 0x4928, symBinAddr: 0x100009908, symSize: 0x14 }
  - { offsetInCU: 0xC2A9, offset: 0x1C268, size: 0x8, addend: 0x0, symName: __ZNKSt3__111__wrap_iterIPK4CardE4baseB7v160006Ev, symObjAddr: 0x493C, symBinAddr: 0x10000991C, symSize: 0x18 }
  - { offsetInCU: 0xC2CE, offset: 0x1C28D, size: 0x8, addend: 0x0, symName: __ZNKSt3__16vectorI4CardNS_9allocatorIS1_EEE5beginB7v160006Ev, symObjAddr: 0x4954, symBinAddr: 0x100009934, symSize: 0x30 }
  - { offsetInCU: 0xC2F5, offset: 0x1C2B4, size: 0x8, addend: 0x0, symName: __ZNKSt3__16vectorI4CardNS_9allocatorIS1_EEE11__make_iterB7v160006EPKS1_, symObjAddr: 0x4984, symBinAddr: 0x100009964, symSize: 0x34 }
  - { offsetInCU: 0xC328, offset: 0x1C2E7, size: 0x8, addend: 0x0, symName: __ZNSt3__111__wrap_iterIPK4CardEC1B7v160006EPKvS3_, symObjAddr: 0x49B8, symBinAddr: 0x100009998, symSize: 0x3C }
  - { offsetInCU: 0xC36C, offset: 0x1C32B, size: 0x8, addend: 0x0, symName: __ZNSt3__111__wrap_iterIPK4CardEC2B7v160006EPKvS3_, symObjAddr: 0x49F4, symBinAddr: 0x1000099D4, symSize: 0x24 }
  - { offsetInCU: 0xC3B1, offset: 0x1C370, size: 0x8, addend: 0x0, symName: __ZNSt3__16vectorI4CardNS_9allocatorIS1_EEE22__base_destruct_at_endB7v160006EPS1_, symObjAddr: 0x4A18, symBinAddr: 0x1000099F8, symSize: 0x8C }
  - { offsetInCU: 0xC3F3, offset: 0x1C3B2, size: 0x8, addend: 0x0, symName: __ZNKSt3__16vectorI4CardNS_9allocatorIS1_EEE17__annotate_shrinkB7v160006Em, symObjAddr: 0x4AA4, symBinAddr: 0x100009A84, symSize: 0xB4 }
  - { offsetInCU: 0xC449, offset: 0x1C408, size: 0x8, addend: 0x0, symName: __ZNKSt3__114__move_trivialclB7v160006I4CardS2_Li0EEENS_4pairIPT_PT0_EES5_S5_S7_, symObjAddr: 0x4CF4, symBinAddr: 0x100009CD4, symSize: 0x48 }
  - { offsetInCU: 0xC4B5, offset: 0x1C474, size: 0x8, addend: 0x0, symName: __ZNSt3__14pairIP4CardS2_EC1B7v160006IRS2_S2_LPv0EEEOT_OT0_, symObjAddr: 0x4EBC, symBinAddr: 0x100009E9C, symSize: 0x3C }
  - { offsetInCU: 0xC512, offset: 0x1C4D1, size: 0x8, addend: 0x0, symName: __ZNSt3__14pairIP4CardS2_EC2B7v160006IRS2_S2_LPv0EEEOT_OT0_, symObjAddr: 0x4EF8, symBinAddr: 0x100009ED8, symSize: 0x34 }
  - { offsetInCU: 0xC570, offset: 0x1C52F, size: 0x8, addend: 0x0, symName: __ZNSt3__118__unwrap_iter_implIP4CardLb1EE8__unwrapB7v160006ES2_, symObjAddr: 0x4F2C, symBinAddr: 0x100009F0C, symSize: 0x24 }
  - { offsetInCU: 0xC593, offset: 0x1C552, size: 0x8, addend: 0x0, symName: __ZNSt3__14pairIP4CardS2_EC1B7v160006IS2_S2_LPv0EEEOT_OT0_, symObjAddr: 0x4F50, symBinAddr: 0x100009F30, symSize: 0x3C }
  - { offsetInCU: 0xC5F0, offset: 0x1C5AF, size: 0x8, addend: 0x0, symName: __ZNSt3__14pairIP4CardS2_EC2B7v160006IS2_S2_LPv0EEEOT_OT0_, symObjAddr: 0x4F8C, symBinAddr: 0x100009F6C, symSize: 0x34 }
  - { offsetInCU: 0xC64E, offset: 0x1C60D, size: 0x8, addend: 0x0, symName: __ZNSt3__118__unwrap_iter_implIP4CardLb1EE8__rewrapB7v160006ES2_S2_, symObjAddr: 0x4FC0, symBinAddr: 0x100009FA0, symSize: 0x50 }
  - { offsetInCU: 0xC67F, offset: 0x1C63E, size: 0x8, addend: 0x0, symName: __ZNSt3__111__wrap_iterIP4CardEpLB7v160006El, symObjAddr: 0x5010, symBinAddr: 0x100009FF0, symSize: 0x28 }
  - { offsetInCU: 0xC6B2, offset: 0x1C671, size: 0x8, addend: 0x0, symName: __ZNSt3__111__wrap_iterIPK4CardEC2B7v160006IPS1_EERKNS0_IT_EEPNS_9enable_ifIXsr14is_convertibleIS7_S3_EE5valueEvE4typeE, symObjAddr: 0x5038, symBinAddr: 0x10000A018, symSize: 0x40 }
  - { offsetInCU: 0xC6FC, offset: 0x1C6BB, size: 0x8, addend: 0x0, symName: __ZN12SimplePlayerD2Ev, symObjAddr: 0x5078, symBinAddr: 0x10000A058, symSize: 0x54 }
  - { offsetInCU: 0xC727, offset: 0x1C6E6, size: 0x8, addend: 0x0, symName: __ZNSt3__16vectorI4CardNS_9allocatorIS1_EEED1B7v160006Ev, symObjAddr: 0x50CC, symBinAddr: 0x10000A0AC, symSize: 0x2C }
  - { offsetInCU: 0xC74F, offset: 0x1C70E, size: 0x8, addend: 0x0, symName: __ZNSt3__16vectorI4CardNS_9allocatorIS1_EEED2B7v160006Ev, symObjAddr: 0x50F8, symBinAddr: 0x10000A0D8, symSize: 0x44 }
  - { offsetInCU: 0xC777, offset: 0x1C736, size: 0x8, addend: 0x0, symName: __ZNSt3__16vectorI4CardNS_9allocatorIS1_EEE16__destroy_vectorC1ERS4_, symObjAddr: 0x513C, symBinAddr: 0x10000A11C, symSize: 0x34 }
  - { offsetInCU: 0xC7AE, offset: 0x1C76D, size: 0x8, addend: 0x0, symName: __ZNSt3__16vectorI4CardNS_9allocatorIS1_EEE16__destroy_vectorclB7v160006Ev, symObjAddr: 0x5170, symBinAddr: 0x10000A150, symSize: 0x9C }
  - { offsetInCU: 0xC7D2, offset: 0x1C791, size: 0x8, addend: 0x0, symName: __ZNSt3__16vectorI4CardNS_9allocatorIS1_EEE16__destroy_vectorC2ERS4_, symObjAddr: 0x520C, symBinAddr: 0x10000A1EC, symSize: 0x20 }
  - { offsetInCU: 0xC80A, offset: 0x1C7C9, size: 0x8, addend: 0x0, symName: __ZNSt3__16vectorI4CardNS_9allocatorIS1_EEE7__clearB7v160006Ev, symObjAddr: 0x523C, symBinAddr: 0x10000A21C, symSize: 0x28 }
  - { offsetInCU: 0xC82E, offset: 0x1C7ED, size: 0x8, addend: 0x0, symName: __ZN11HumanPlayerC2ERKNSt3__112basic_stringIcNS0_11char_traitsIcEENS0_9allocatorIcEEEE, symObjAddr: 0x5264, symBinAddr: 0x10000A244, symSize: 0x8C }
  - { offsetInCU: 0xC864, offset: 0x1C823, size: 0x8, addend: 0x0, symName: __ZNK11HumanPlayer8get_nameEv, symObjAddr: 0x52F0, symBinAddr: 0x10000A2D0, symSize: 0x18 }
  - { offsetInCU: 0xC889, offset: 0x1C848, size: 0x8, addend: 0x0, symName: __ZN11HumanPlayer8add_cardERK4Card, symObjAddr: 0x5308, symBinAddr: 0x10000A2E8, symSize: 0x60 }
  - { offsetInCU: 0xC8BB, offset: 0x1C87A, size: 0x8, addend: 0x0, symName: __ZNK11HumanPlayer10make_trumpERK4CardbiR4Suit, symObjAddr: 0x5368, symBinAddr: 0x10000A348, symSize: 0x128 }
  - { offsetInCU: 0xC925, offset: 0x1C8E4, size: 0x8, addend: 0x0, symName: __ZN11HumanPlayer15add_and_discardERK4Card, symObjAddr: 0x5490, symBinAddr: 0x10000A470, symSize: 0xD8 }
  - { offsetInCU: 0xC965, offset: 0x1C924, size: 0x8, addend: 0x0, symName: __ZN11HumanPlayer9lead_cardE4Suit, symObjAddr: 0x5568, symBinAddr: 0x10000A548, symSize: 0xDC }
  - { offsetInCU: 0xC9A7, offset: 0x1C966, size: 0x8, addend: 0x0, symName: __ZN11HumanPlayer9play_cardERK4Card4Suit, symObjAddr: 0x5644, symBinAddr: 0x10000A624, symSize: 0xD0 }
  - { offsetInCU: 0xC9F8, offset: 0x1C9B7, size: 0x8, addend: 0x0, symName: __ZN11HumanPlayerD1Ev, symObjAddr: 0x5714, symBinAddr: 0x10000A6F4, symSize: 0x2C }
  - { offsetInCU: 0xCA23, offset: 0x1C9E2, size: 0x8, addend: 0x0, symName: __ZN11HumanPlayerD0Ev, symObjAddr: 0x5740, symBinAddr: 0x10000A720, symSize: 0x30 }
  - { offsetInCU: 0xCA4E, offset: 0x1CA0D, size: 0x8, addend: 0x0, symName: __ZNK11HumanPlayer10print_handEv, symObjAddr: 0x5770, symBinAddr: 0x10000A750, symSize: 0xE8 }
  - { offsetInCU: 0xCAB1, offset: 0x1CA70, size: 0x8, addend: 0x0, symName: __ZN11HumanPlayerD2Ev, symObjAddr: 0x6D04, symBinAddr: 0x10000A86C, symSize: 0x54 }
  - { offsetInCU: 0xCADC, offset: 0x1CA9B, size: 0x8, addend: 0x0, symName: __ZNKSt3__112basic_stringIcNS_11char_traitsIcEENS_9allocatorIcEEE4dataB7v160006Ev, symObjAddr: 0x6D58, symBinAddr: 0x10000A8C0, symSize: 0x28 }
  - { offsetInCU: 0xCB00, offset: 0x1CABF, size: 0x8, addend: 0x0, symName: __ZNKSt3__112basic_stringIcNS_11char_traitsIcEENS_9allocatorIcEEE13__get_pointerB7v160006Ev, symObjAddr: 0x6DE8, symBinAddr: 0x10000A8FC, symSize: 0x54 }
  - { offsetInCU: 0xCB24, offset: 0x1CAE3, size: 0x8, addend: 0x0, symName: __ZNKSt3__112basic_stringIcNS_11char_traitsIcEENS_9allocatorIcEEE18__get_long_pointerB7v160006Ev, symObjAddr: 0x6E3C, symBinAddr: 0x10000A950, symSize: 0x28 }
  - { offsetInCU: 0xCB48, offset: 0x1CB07, size: 0x8, addend: 0x0, symName: __ZNKSt3__112basic_stringIcNS_11char_traitsIcEENS_9allocatorIcEEE19__get_short_pointerB7v160006Ev, symObjAddr: 0x6E64, symBinAddr: 0x10000A978, symSize: 0x28 }
  - { offsetInCU: 0xCB6C, offset: 0x1CB2B, size: 0x8, addend: 0x0, symName: __ZNSt3__114pointer_traitsIPKcE10pointer_toB7v160006ERS1_, symObjAddr: 0x6E8C, symBinAddr: 0x10000A9A0, symSize: 0x14 }
  - { offsetInCU: 0xD9B0, offset: 0x2A5C5, size: 0x8, addend: 0x0, symName: __ZNSt3__14endlB7v160006IcNS_11char_traitsIcEEEERNS_13basic_ostreamIT_T0_EES7_, symObjAddr: 0x994, symBinAddr: 0x10000B220, symSize: 0x58 }
  - { offsetInCU: 0xDCC8, offset: 0x2A8DD, size: 0x8, addend: 0x0, symName: __ZNSt3__122__make_exception_guardB7v160006INS_6vectorIP6PlayerNS_9allocatorIS3_EEE16__destroy_vectorEEENS_28__exception_guard_exceptionsIT_EES9_, symObjAddr: 0x301C, symBinAddr: 0x10000CB7C, symSize: 0x40 }
  - { offsetInCU: 0xDCFD, offset: 0x2A912, size: 0x8, addend: 0x0, symName: __ZNSt3__119__debug_db_insert_cB7v160006INS_6vectorIP6PlayerNS_9allocatorIS3_EEEEEEvPT_, symObjAddr: 0x3090, symBinAddr: 0x10000CBF0, symSize: 0x10 }
  - { offsetInCU: 0xDD2E, offset: 0x2A943, size: 0x8, addend: 0x0, symName: __ZNSt3__119__allocate_at_leastB7v160006INS_9allocatorIP6PlayerEEEENS_19__allocation_resultINS_16allocator_traitsIT_E7pointerEEERS7_m, symObjAddr: 0x33C4, symBinAddr: 0x10000CF24, symSize: 0x40 }
  - { offsetInCU: 0xDD71, offset: 0x2A986, size: 0x8, addend: 0x0, symName: __ZNSt3__112__to_addressB7v160006IP6PlayerEEPT_S4_, symObjAddr: 0x3940, symBinAddr: 0x10000D1E8, symSize: 0x14 }
  - { offsetInCU: 0xDDA6, offset: 0x2A9BB, size: 0x8, addend: 0x0, symName: __ZNSt3__130__uninitialized_allocator_copyB7v160006INS_9allocatorIP6PlayerEEPS3_S5_S5_EET2_RT_T0_T1_S6_, symObjAddr: 0x39F0, symBinAddr: 0x10000D298, symSize: 0xF4 }
  - { offsetInCU: 0xDE44, offset: 0x2AA59, size: 0x8, addend: 0x0, symName: __ZNSt3__122__make_exception_guardB7v160006INS_29_AllocatorDestroyRangeReverseINS_9allocatorIP6PlayerEEPS4_EEEENS_28__exception_guard_exceptionsIT_EES9_, symObjAddr: 0x3B54, symBinAddr: 0x10000D3FC, symSize: 0x4C }
  - { offsetInCU: 0xDE7A, offset: 0x2AA8F, size: 0x8, addend: 0x0, symName: __ZNSt3__119__allocator_destroyB7v160006INS_9allocatorIP6PlayerEENS_16reverse_iteratorIPS3_EES7_EEvRT_T0_T1_, symObjAddr: 0x3DDC, symBinAddr: 0x10000D684, symSize: 0x70 }
  - { offsetInCU: 0xDEDE, offset: 0x2AAF3, size: 0x8, addend: 0x0, symName: __ZNSt3__1neB7v160006IPP6PlayerS3_EEbRKNS_16reverse_iteratorIT_EERKNS4_IT0_EE, symObjAddr: 0x3E80, symBinAddr: 0x10000D728, symSize: 0x48 }
  - { offsetInCU: 0xDF2A, offset: 0x2AB3F, size: 0x8, addend: 0x0, symName: __ZNSt3__112__to_addressB7v160006INS_16reverse_iteratorIPP6PlayerEEvEENS_5decayIDTclsr19__to_address_helperIT_EE6__callclsr3stdE7declvalIRKS7_EEEEE4typeES9_, symObjAddr: 0x3EF4, symBinAddr: 0x10000D79C, symSize: 0x24 }
  - { offsetInCU: 0xDF8A, offset: 0x2AB9F, size: 0x8, addend: 0x0, symName: __ZNSt3__118__debug_db_erase_cB7v160006INS_6vectorIP6PlayerNS_9allocatorIS3_EEEEEEvPT_, symObjAddr: 0x41D4, symBinAddr: 0x10000DA7C, symSize: 0x10 }
  - { offsetInCU: 0xDFBB, offset: 0x2ABD0, size: 0x8, addend: 0x0, symName: __ZNSt3__142__uninitialized_allocator_move_if_noexceptB7v160006INS_9allocatorIP6PlayerEENS_16reverse_iteratorIPS3_EES7_S3_vEET1_RT_T0_SB_S8_, symObjAddr: 0x4E18, symBinAddr: 0x10000E4D8, symSize: 0x78 }
  - { offsetInCU: 0xE039, offset: 0x2AC4E, size: 0x8, addend: 0x0, symName: __ZNSt3__14swapB7v160006IPP6PlayerEENS_9enable_ifIXaasr21is_move_constructibleIT_EE5valuesr18is_move_assignableIS5_EE5valueEvE4typeERS5_S8_, symObjAddr: 0x4E90, symBinAddr: 0x10000E550, symSize: 0x3C }
  - { offsetInCU: 0xE08A, offset: 0x2AC9F, size: 0x8, addend: 0x0, symName: __ZNSt3__125__debug_db_invalidate_allB7v160006INS_6vectorIP6PlayerNS_9allocatorIS3_EEEEEEvPT_, symObjAddr: 0x4ECC, symBinAddr: 0x10000E58C, symSize: 0x10 }
  - { offsetInCU: 0xE0BB, offset: 0x2ACD0, size: 0x8, addend: 0x0, symName: __ZNSt3__14moveB7v160006INS_16reverse_iteratorIPP6PlayerEES5_EET0_T_S7_S6_, symObjAddr: 0x4EDC, symBinAddr: 0x10000E59C, symSize: 0x78 }
  - { offsetInCU: 0xE115, offset: 0x2AD2A, size: 0x8, addend: 0x0, symName: __ZNSt3__16__moveB7v160006INS_17_ClassicAlgPolicyENS_16reverse_iteratorIPP6PlayerEES6_S6_EENS_4pairIT0_T2_EES8_T1_S9_, symObjAddr: 0x4F54, symBinAddr: 0x10000E614, symSize: 0x64 }
  - { offsetInCU: 0xE181, offset: 0x2AD96, size: 0x8, addend: 0x0, symName: __ZNSt3__123__dispatch_copy_or_moveB7v160006INS_17_ClassicAlgPolicyENS_11__move_loopIS1_EENS_14__move_trivialENS_16reverse_iteratorIPP6PlayerEES9_S9_EENS_4pairIT2_T4_EESB_T3_SC_, symObjAddr: 0x4FB8, symBinAddr: 0x10000E678, symSize: 0x64 }
  - { offsetInCU: 0xE1FF, offset: 0x2AE14, size: 0x8, addend: 0x0, symName: __ZNSt3__121__unwrap_and_dispatchB7v160006INS_10__overloadINS_11__move_loopINS_17_ClassicAlgPolicyEEENS_14__move_trivialEEENS_16reverse_iteratorIPP6PlayerEESB_SB_Li0EEENS_4pairIT0_T2_EESD_T1_SE_, symObjAddr: 0x501C, symBinAddr: 0x10000E6DC, symSize: 0x12C }
  - { offsetInCU: 0xE290, offset: 0x2AEA5, size: 0x8, addend: 0x0, symName: __ZNSt3__114__unwrap_rangeB7v160006INS_16reverse_iteratorIPP6PlayerEES5_EENS_4pairIT0_S7_EET_S9_, symObjAddr: 0x5148, symBinAddr: 0x10000E808, symSize: 0x84 }
  - { offsetInCU: 0xE403, offset: 0x2B018, size: 0x8, addend: 0x0, symName: __ZNSt3__113__unwrap_iterB7v160006INS_16reverse_iteratorIPP6PlayerEENS_18__unwrap_iter_implIS5_Lb0EEELi0EEEDTclsrT0_8__unwrapclsr3stdE7declvalIT_EEEES9_, symObjAddr: 0x526C, symBinAddr: 0x10000E92C, symSize: 0x44 }
  - { offsetInCU: 0xE448, offset: 0x2B05D, size: 0x8, addend: 0x0, symName: __ZNSt3__19make_pairB7v160006INS_16reverse_iteratorIPP6PlayerEES5_EENS_4pairINS_18__unwrap_ref_decayIT_E4typeENS7_IT0_E4typeEEEOS8_OSB_, symObjAddr: 0x52B0, symBinAddr: 0x10000E970, symSize: 0x38 }
  - { offsetInCU: 0xE497, offset: 0x2B0AC, size: 0x8, addend: 0x0, symName: __ZNSt3__114__rewrap_rangeB7v160006INS_16reverse_iteratorIPP6PlayerEES5_EET_S6_T0_, symObjAddr: 0x52E8, symBinAddr: 0x10000E9A8, symSize: 0x5C }
  - { offsetInCU: 0xE4E3, offset: 0x2B0F8, size: 0x8, addend: 0x0, symName: __ZNSt3__113__rewrap_iterB7v160006INS_16reverse_iteratorIPP6PlayerEES5_NS_18__unwrap_iter_implIS5_Lb0EEEEET_S8_T0_, symObjAddr: 0x5344, symBinAddr: 0x10000EA04, symSize: 0x74 }
  - { offsetInCU: 0xF132, offset: 0x2BD47, size: 0x8, addend: 0x0, symName: __ZNSt3__16vectorIP6PlayerNS_9allocatorIS2_EEE26__swap_out_circular_bufferERNS_14__split_bufferIS2_RS4_EE, symObjAddr: 0x4A28, symBinAddr: 0x10000E168, symSize: 0x118 }
  - { offsetInCU: 0x10EBA, offset: 0x2DACF, size: 0x8, addend: 0x0, symName: _main, symObjAddr: 0x0, symBinAddr: 0x10000A9B4, symSize: 0x63C }
  - { offsetInCU: 0x11105, offset: 0x2DD1A, size: 0x8, addend: 0x0, symName: __ZNSt3__114basic_ifstreamIcNS_11char_traitsIcEEEC1ERKNS_12basic_stringIcS2_NS_9allocatorIcEEEEj, symObjAddr: 0x670, symBinAddr: 0x10000AFF0, symSize: 0x16C }
  - { offsetInCU: 0x1114E, offset: 0x2DD63, size: 0x8, addend: 0x0, symName: __ZNSt3__16vectorIP6PlayerNS_9allocatorIS2_EEEC1B7v160006Ev, symObjAddr: 0x7DC, symBinAddr: 0x10000B15C, symSize: 0x2C }
  - { offsetInCU: 0x11176, offset: 0x2DD8B, size: 0x8, addend: 0x0, symName: __ZNSt3__16vectorIP6PlayerNS_9allocatorIS2_EEE9push_backB7v160006EOS2_, symObjAddr: 0x808, symBinAddr: 0x10000B188, symSize: 0x6C }
  - { offsetInCU: 0x111AC, offset: 0x2DDC1, size: 0x8, addend: 0x0, symName: __ZNSt3__113basic_ostreamIcNS_11char_traitsIcEEElsB7v160006EPFRS3_S4_E, symObjAddr: 0x968, symBinAddr: 0x10000B1F4, symSize: 0x2C }
  - { offsetInCU: 0x111DE, offset: 0x2DDF3, size: 0x8, addend: 0x0, symName: __ZNKSt3__114basic_ifstreamIcNS_11char_traitsIcEEE7is_openEv, symObjAddr: 0x9EC, symBinAddr: 0x10000B278, symSize: 0x2C }
  - { offsetInCU: 0x114A0, offset: 0x2E0B5, size: 0x8, addend: 0x0, symName: __ZN4GameC1Ev, symObjAddr: 0xA64, symBinAddr: 0x10000B2A4, symSize: 0x2C }
  - { offsetInCU: 0x114CB, offset: 0x2E0E0, size: 0x8, addend: 0x0, symName: __ZN4Game4playENSt3__16vectorIP6PlayerNS0_9allocatorIS3_EEEEiNS0_12basic_stringIcNS0_11char_traitsIcEENS4_IcEEEE, symObjAddr: 0xA90, symBinAddr: 0x10000B2D0, symSize: 0x430 }
  - { offsetInCU: 0x11529, offset: 0x2E13E, size: 0x8, addend: 0x0, symName: __ZNSt3__16vectorIP6PlayerNS_9allocatorIS2_EEEC1ERKS5_, symObjAddr: 0xEC0, symBinAddr: 0x10000B700, symSize: 0x34 }
  - { offsetInCU: 0x11563, offset: 0x2E178, size: 0x8, addend: 0x0, symName: __ZNSt3__16vectorIP6PlayerNS_9allocatorIS2_EEED1B7v160006Ev, symObjAddr: 0xEF4, symBinAddr: 0x10000B734, symSize: 0x2C }
  - { offsetInCU: 0x1158B, offset: 0x2E1A0, size: 0x8, addend: 0x0, symName: __ZN4GameD1Ev, symObjAddr: 0xF20, symBinAddr: 0x10000B760, symSize: 0x2C }
  - { offsetInCU: 0x115BB, offset: 0x2E1D0, size: 0x8, addend: 0x0, symName: __ZNSt3__114basic_ifstreamIcNS_11char_traitsIcEEED1Ev, symObjAddr: 0xF4C, symBinAddr: 0x10000B78C, symSize: 0x40 }
  - { offsetInCU: 0x115E7, offset: 0x2E1FC, size: 0x8, addend: 0x0, symName: __ZN4GameC2Ev, symObjAddr: 0xF8C, symBinAddr: 0x10000B7CC, symSize: 0x90 }
  - { offsetInCU: 0x11612, offset: 0x2E227, size: 0x8, addend: 0x0, symName: __ZNSt3__16vectorIP6PlayerNS_9allocatorIS2_EEEixB7v160006Em, symObjAddr: 0x101C, symBinAddr: 0x10000B85C, symSize: 0x24 }
  - { offsetInCU: 0x11648, offset: 0x2E25D, size: 0x8, addend: 0x0, symName: __ZN4Game7shuffleENSt3__112basic_stringIcNS0_11char_traitsIcEENS0_9allocatorIcEEEER4Pack, symObjAddr: 0x1040, symBinAddr: 0x10000B880, symSize: 0x5C }
  - { offsetInCU: 0x11689, offset: 0x2E29E, size: 0x8, addend: 0x0, symName: __ZN4Game4dealER4CardNSt3__16vectorIP6PlayerNS2_9allocatorIS5_EEEEi, symObjAddr: 0x109C, symBinAddr: 0x10000B8DC, symSize: 0x344 }
  - { offsetInCU: 0x117F3, offset: 0x2E408, size: 0x8, addend: 0x0, symName: __ZN4Game10make_trumpERiNSt3__16vectorIP6PlayerNS1_9allocatorIS4_EEEEiR4Card, symObjAddr: 0x13E0, symBinAddr: 0x10000BC20, symSize: 0x45C }
  - { offsetInCU: 0x118B2, offset: 0x2E4C7, size: 0x8, addend: 0x0, symName: __ZN4Game6tricksER4SuitNSt3__16vectorIP6PlayerNS2_9allocatorIS5_EEEEiiRiS9_, symObjAddr: 0x183C, symBinAddr: 0x10000C07C, symSize: 0x3EC }
  - { offsetInCU: 0x1199F, offset: 0x2E5B4, size: 0x8, addend: 0x0, symName: __ZN4Game7scoringENSt3__16vectorIP6PlayerNS0_9allocatorIS3_EEEERiS7_S7_S7_i, symObjAddr: 0x1C28, symBinAddr: 0x10000C468, symSize: 0x410 }
  - { offsetInCU: 0x11A34, offset: 0x2E649, size: 0x8, addend: 0x0, symName: __ZN4Game7endgameENSt3__16vectorIP6PlayerNS0_9allocatorIS3_EEEE, symObjAddr: 0x2038, symBinAddr: 0x10000C878, symSize: 0x9C }
  - { offsetInCU: 0x11A83, offset: 0x2E698, size: 0x8, addend: 0x0, symName: __ZNKSt3__16vectorIP6PlayerNS_9allocatorIS2_EEE4sizeB7v160006Ev, symObjAddr: 0x20D4, symBinAddr: 0x10000C914, symSize: 0x28 }
  - { offsetInCU: 0x11AA8, offset: 0x2E6BD, size: 0x8, addend: 0x0, symName: __ZN4GameD2Ev, symObjAddr: 0x20FC, symBinAddr: 0x10000C93C, symSize: 0x2C }
  - { offsetInCU: 0x11AD3, offset: 0x2E6E8, size: 0x8, addend: 0x0, symName: __ZNSt3__114basic_ifstreamIcNS_11char_traitsIcEEED2Ev, symObjAddr: 0x2128, symBinAddr: 0x10000C968, symSize: 0x64 }
  - { offsetInCU: 0x11B0B, offset: 0x2E720, size: 0x8, addend: 0x0, symName: __ZTv0_n24_NSt3__114basic_ifstreamIcNS_11char_traitsIcEEED1Ev, symObjAddr: 0x218C, symBinAddr: 0x10000C9CC, symSize: 0x28 }
  - { offsetInCU: 0x11B45, offset: 0x2E75A, size: 0x8, addend: 0x0, symName: __ZNSt3__16vectorIP6PlayerNS_9allocatorIS2_EEEC2ERKS5_, symObjAddr: 0x2E94, symBinAddr: 0x10000C9F4, symSize: 0x114 }
  - { offsetInCU: 0x11BAD, offset: 0x2E7C2, size: 0x8, addend: 0x0, symName: __ZNSt3__116allocator_traitsINS_9allocatorIP6PlayerEEE37select_on_container_copy_constructionB7v160006IS4_vvEES4_RKS4_, symObjAddr: 0x2FA8, symBinAddr: 0x10000CB08, symSize: 0x10 }
  - { offsetInCU: 0x11BDC, offset: 0x2E7F1, size: 0x8, addend: 0x0, symName: __ZNKSt3__16vectorIP6PlayerNS_9allocatorIS2_EEE7__allocB7v160006Ev, symObjAddr: 0x2FB8, symBinAddr: 0x10000CB18, symSize: 0x28 }
  - { offsetInCU: 0x11C0A, offset: 0x2E81F, size: 0x8, addend: 0x0, symName: __ZNSt3__117__compressed_pairIPP6PlayerNS_9allocatorIS2_EEEC1B7v160006IDnS5_EEOT_OT0_, symObjAddr: 0x2FE0, symBinAddr: 0x10000CB40, symSize: 0x3C }
  - { offsetInCU: 0x11C60, offset: 0x2E875, size: 0x8, addend: 0x0, symName: __ZNSt3__16vectorIP6PlayerNS_9allocatorIS2_EEE16__destroy_vectorC1ERS5_, symObjAddr: 0x305C, symBinAddr: 0x10000CBBC, symSize: 0x34 }
  - { offsetInCU: 0x11C97, offset: 0x2E8AC, size: 0x8, addend: 0x0, symName: __ZNSt3__16vectorIP6PlayerNS_9allocatorIS2_EEE11__vallocateB7v160006Em, symObjAddr: 0x30A0, symBinAddr: 0x10000CC00, symSize: 0xAC }
  - { offsetInCU: 0x11CD9, offset: 0x2E8EE, size: 0x8, addend: 0x0, symName: __ZNSt3__16vectorIP6PlayerNS_9allocatorIS2_EEE18__construct_at_endIPS2_Li0EEEvT_S8_m, symObjAddr: 0x314C, symBinAddr: 0x10000CCAC, symSize: 0x8C }
  - { offsetInCU: 0x11D4C, offset: 0x2E961, size: 0x8, addend: 0x0, symName: __ZNSt3__128__exception_guard_exceptionsINS_6vectorIP6PlayerNS_9allocatorIS3_EEE16__destroy_vectorEE10__completeB7v160006Ev, symObjAddr: 0x31D8, symBinAddr: 0x10000CD38, symSize: 0x1C }
  - { offsetInCU: 0x11D71, offset: 0x2E986, size: 0x8, addend: 0x0, symName: __ZNSt3__128__exception_guard_exceptionsINS_6vectorIP6PlayerNS_9allocatorIS3_EEE16__destroy_vectorEED1B7v160006Ev, symObjAddr: 0x31F4, symBinAddr: 0x10000CD54, symSize: 0x2C }
  - { offsetInCU: 0x11D99, offset: 0x2E9AE, size: 0x8, addend: 0x0, symName: __ZNKSt3__117__compressed_pairIPP6PlayerNS_9allocatorIS2_EEE6secondB7v160006Ev, symObjAddr: 0x3220, symBinAddr: 0x10000CD80, symSize: 0x24 }
  - { offsetInCU: 0x11DBD, offset: 0x2E9D2, size: 0x8, addend: 0x0, symName: __ZNKSt3__122__compressed_pair_elemINS_9allocatorIP6PlayerEELi1ELb1EE5__getB7v160006Ev, symObjAddr: 0x3244, symBinAddr: 0x10000CDA4, symSize: 0x14 }
  - { offsetInCU: 0x11DE2, offset: 0x2E9F7, size: 0x8, addend: 0x0, symName: __ZNSt3__117__compressed_pairIPP6PlayerNS_9allocatorIS2_EEEC2B7v160006IDnS5_EEOT_OT0_, symObjAddr: 0x3258, symBinAddr: 0x10000CDB8, symSize: 0x44 }
  - { offsetInCU: 0x11E38, offset: 0x2EA4D, size: 0x8, addend: 0x0, symName: __ZNSt3__122__compressed_pair_elemIPP6PlayerLi0ELb0EEC2B7v160006IDnvEEOT_, symObjAddr: 0x329C, symBinAddr: 0x10000CDFC, symSize: 0x1C }
  - { offsetInCU: 0x11E79, offset: 0x2EA8E, size: 0x8, addend: 0x0, symName: __ZNSt3__122__compressed_pair_elemINS_9allocatorIP6PlayerEELi1ELb1EEC2B7v160006IS4_vEEOT_, symObjAddr: 0x32B8, symBinAddr: 0x10000CE18, symSize: 0x18 }
  - { offsetInCU: 0x11EBA, offset: 0x2EACF, size: 0x8, addend: 0x0, symName: __ZNSt3__128__exception_guard_exceptionsINS_6vectorIP6PlayerNS_9allocatorIS3_EEE16__destroy_vectorEEC1B7v160006ES7_, symObjAddr: 0x32D0, symBinAddr: 0x10000CE30, symSize: 0x34 }
  - { offsetInCU: 0x11EF0, offset: 0x2EB05, size: 0x8, addend: 0x0, symName: __ZNSt3__128__exception_guard_exceptionsINS_6vectorIP6PlayerNS_9allocatorIS3_EEE16__destroy_vectorEEC2B7v160006ES7_, symObjAddr: 0x3304, symBinAddr: 0x10000CE64, symSize: 0x24 }
  - { offsetInCU: 0x11F27, offset: 0x2EB3C, size: 0x8, addend: 0x0, symName: __ZNSt3__16vectorIP6PlayerNS_9allocatorIS2_EEE16__destroy_vectorC2ERS5_, symObjAddr: 0x3328, symBinAddr: 0x10000CE88, symSize: 0x20 }
  - { offsetInCU: 0x11F5F, offset: 0x2EB74, size: 0x8, addend: 0x0, symName: __ZNKSt3__16vectorIP6PlayerNS_9allocatorIS2_EEE8max_sizeEv, symObjAddr: 0x3348, symBinAddr: 0x10000CEA8, symSize: 0x60 }
  - { offsetInCU: 0x11F86, offset: 0x2EB9B, size: 0x8, addend: 0x0, symName: __ZNKSt3__16vectorIP6PlayerNS_9allocatorIS2_EEE20__throw_length_errorB7v160006Ev, symObjAddr: 0x33A8, symBinAddr: 0x10000CF08, symSize: 0x1C }
  - { offsetInCU: 0x11FAA, offset: 0x2EBBF, size: 0x8, addend: 0x0, symName: __ZNSt3__16vectorIP6PlayerNS_9allocatorIS2_EEE7__allocB7v160006Ev, symObjAddr: 0x3404, symBinAddr: 0x10000CF64, symSize: 0x28 }
  - { offsetInCU: 0x11FCE, offset: 0x2EBE3, size: 0x8, addend: 0x0, symName: __ZNSt3__16vectorIP6PlayerNS_9allocatorIS2_EEE9__end_capB7v160006Ev, symObjAddr: 0x342C, symBinAddr: 0x10000CF8C, symSize: 0x28 }
  - { offsetInCU: 0x11FF2, offset: 0x2EC07, size: 0x8, addend: 0x0, symName: __ZNKSt3__16vectorIP6PlayerNS_9allocatorIS2_EEE14__annotate_newB7v160006Em, symObjAddr: 0x3454, symBinAddr: 0x10000CFB4, symSize: 0xAC }
  - { offsetInCU: 0x12025, offset: 0x2EC3A, size: 0x8, addend: 0x0, symName: __ZNSt3__116allocator_traitsINS_9allocatorIP6PlayerEEE8max_sizeB7v160006IS4_vEEmRKS4_, symObjAddr: 0x352C, symBinAddr: 0x10000D060, symSize: 0x24 }
  - { offsetInCU: 0x12053, offset: 0x2EC68, size: 0x8, addend: 0x0, symName: __ZNKSt3__19allocatorIP6PlayerE8max_sizeB7v160006Ev, symObjAddr: 0x35EC, symBinAddr: 0x10000D084, symSize: 0x14 }
  - { offsetInCU: 0x12078, offset: 0x2EC8D, size: 0x8, addend: 0x0, symName: __ZNSt3__19allocatorIP6PlayerE8allocateB7v160006Em, symObjAddr: 0x36EC, symBinAddr: 0x10000D098, symSize: 0x58 }
  - { offsetInCU: 0x120AA, offset: 0x2ECBF, size: 0x8, addend: 0x0, symName: __ZNSt3__117__compressed_pairIPP6PlayerNS_9allocatorIS2_EEE6secondB7v160006Ev, symObjAddr: 0x3848, symBinAddr: 0x10000D0F0, symSize: 0x24 }
  - { offsetInCU: 0x120CE, offset: 0x2ECE3, size: 0x8, addend: 0x0, symName: __ZNSt3__122__compressed_pair_elemINS_9allocatorIP6PlayerEELi1ELb1EE5__getB7v160006Ev, symObjAddr: 0x386C, symBinAddr: 0x10000D114, symSize: 0x14 }
  - { offsetInCU: 0x120F3, offset: 0x2ED08, size: 0x8, addend: 0x0, symName: __ZNSt3__117__compressed_pairIPP6PlayerNS_9allocatorIS2_EEE5firstB7v160006Ev, symObjAddr: 0x3880, symBinAddr: 0x10000D128, symSize: 0x24 }
  - { offsetInCU: 0x12117, offset: 0x2ED2C, size: 0x8, addend: 0x0, symName: __ZNSt3__122__compressed_pair_elemIPP6PlayerLi0ELb0EE5__getB7v160006Ev, symObjAddr: 0x38A4, symBinAddr: 0x10000D14C, symSize: 0x14 }
  - { offsetInCU: 0x1213C, offset: 0x2ED51, size: 0x8, addend: 0x0, symName: __ZNKSt3__16vectorIP6PlayerNS_9allocatorIS2_EEE31__annotate_contiguous_containerB7v160006EPKvS7_S7_S7_, symObjAddr: 0x38B8, symBinAddr: 0x10000D160, symSize: 0x20 }
  - { offsetInCU: 0x12191, offset: 0x2EDA6, size: 0x8, addend: 0x0, symName: __ZNKSt3__16vectorIP6PlayerNS_9allocatorIS2_EEE4dataB7v160006Ev, symObjAddr: 0x38D8, symBinAddr: 0x10000D180, symSize: 0x28 }
  - { offsetInCU: 0x121B5, offset: 0x2EDCA, size: 0x8, addend: 0x0, symName: __ZNKSt3__16vectorIP6PlayerNS_9allocatorIS2_EEE8capacityB7v160006Ev, symObjAddr: 0x3900, symBinAddr: 0x10000D1A8, symSize: 0x40 }
  - { offsetInCU: 0x121D9, offset: 0x2EDEE, size: 0x8, addend: 0x0, symName: __ZNKSt3__16vectorIP6PlayerNS_9allocatorIS2_EEE9__end_capB7v160006Ev, symObjAddr: 0x3954, symBinAddr: 0x10000D1FC, symSize: 0x28 }
  - { offsetInCU: 0x121FD, offset: 0x2EE12, size: 0x8, addend: 0x0, symName: __ZNKSt3__117__compressed_pairIPP6PlayerNS_9allocatorIS2_EEE5firstB7v160006Ev, symObjAddr: 0x397C, symBinAddr: 0x10000D224, symSize: 0x24 }
  - { offsetInCU: 0x12221, offset: 0x2EE36, size: 0x8, addend: 0x0, symName: __ZNKSt3__122__compressed_pair_elemIPP6PlayerLi0ELb0EE5__getB7v160006Ev, symObjAddr: 0x39A0, symBinAddr: 0x10000D248, symSize: 0x14 }
  - { offsetInCU: 0x1225F, offset: 0x2EE74, size: 0x8, addend: 0x0, symName: __ZNSt3__16vectorIP6PlayerNS_9allocatorIS2_EEE21_ConstructTransactionC1B7v160006ERS5_m, symObjAddr: 0x39B4, symBinAddr: 0x10000D25C, symSize: 0x3C }
  - { offsetInCU: 0x122A5, offset: 0x2EEBA, size: 0x8, addend: 0x0, symName: __ZNSt3__16vectorIP6PlayerNS_9allocatorIS2_EEE21_ConstructTransactionD1B7v160006Ev, symObjAddr: 0x3AE4, symBinAddr: 0x10000D38C, symSize: 0x2C }
  - { offsetInCU: 0x122CD, offset: 0x2EEE2, size: 0x8, addend: 0x0, symName: __ZNSt3__16vectorIP6PlayerNS_9allocatorIS2_EEE21_ConstructTransactionC2B7v160006ERS5_m, symObjAddr: 0x3B10, symBinAddr: 0x10000D3B8, symSize: 0x44 }
  - { offsetInCU: 0x12314, offset: 0x2EF29, size: 0x8, addend: 0x0, symName: __ZNSt3__129_AllocatorDestroyRangeReverseINS_9allocatorIP6PlayerEEPS3_EC1B7v160006ERS4_RS5_S8_, symObjAddr: 0x3BA0, symBinAddr: 0x10000D448, symSize: 0x44 }
  - { offsetInCU: 0x12369, offset: 0x2EF7E, size: 0x8, addend: 0x0, symName: __ZNSt3__116allocator_traitsINS_9allocatorIP6PlayerEEE9constructB7v160006IS3_JRS3_EvEEvRS4_PT_DpOT0_, symObjAddr: 0x3BE4, symBinAddr: 0x10000D48C, symSize: 0x34 }
  - { offsetInCU: 0x123C1, offset: 0x2EFD6, size: 0x8, addend: 0x0, symName: __ZNSt3__128__exception_guard_exceptionsINS_29_AllocatorDestroyRangeReverseINS_9allocatorIP6PlayerEEPS4_EEE10__completeB7v160006Ev, symObjAddr: 0x3C18, symBinAddr: 0x10000D4C0, symSize: 0x1C }
  - { offsetInCU: 0x123E6, offset: 0x2EFFB, size: 0x8, addend: 0x0, symName: __ZNSt3__128__exception_guard_exceptionsINS_29_AllocatorDestroyRangeReverseINS_9allocatorIP6PlayerEEPS4_EEED1B7v160006Ev, symObjAddr: 0x3C34, symBinAddr: 0x10000D4DC, symSize: 0x2C }
  - { offsetInCU: 0x1240E, offset: 0x2F023, size: 0x8, addend: 0x0, symName: __ZNSt3__128__exception_guard_exceptionsINS_29_AllocatorDestroyRangeReverseINS_9allocatorIP6PlayerEEPS4_EEEC1B7v160006ES7_, symObjAddr: 0x3C60, symBinAddr: 0x10000D508, symSize: 0x34 }
  - { offsetInCU: 0x12445, offset: 0x2F05A, size: 0x8, addend: 0x0, symName: __ZNSt3__128__exception_guard_exceptionsINS_29_AllocatorDestroyRangeReverseINS_9allocatorIP6PlayerEEPS4_EEEC2B7v160006ES7_, symObjAddr: 0x3C94, symBinAddr: 0x10000D53C, symSize: 0x30 }
  - { offsetInCU: 0x1247D, offset: 0x2F092, size: 0x8, addend: 0x0, symName: __ZNSt3__129_AllocatorDestroyRangeReverseINS_9allocatorIP6PlayerEEPS3_EC2B7v160006ERS4_RS5_S8_, symObjAddr: 0x3CC4, symBinAddr: 0x10000D56C, symSize: 0x38 }
  - { offsetInCU: 0x124D3, offset: 0x2F0E8, size: 0x8, addend: 0x0, symName: __ZNSt3__19allocatorIP6PlayerE9constructB7v160006IS2_JRS2_EEEvPT_DpOT0_, symObjAddr: 0x3CFC, symBinAddr: 0x10000D5A4, symSize: 0x28 }
  - { offsetInCU: 0x12529, offset: 0x2F13E, size: 0x8, addend: 0x0, symName: __ZNSt3__128__exception_guard_exceptionsINS_29_AllocatorDestroyRangeReverseINS_9allocatorIP6PlayerEEPS4_EEED2B7v160006Ev, symObjAddr: 0x3D24, symBinAddr: 0x10000D5CC, symSize: 0x50 }
  - { offsetInCU: 0x12551, offset: 0x2F166, size: 0x8, addend: 0x0, symName: __ZNKSt3__129_AllocatorDestroyRangeReverseINS_9allocatorIP6PlayerEEPS3_EclB7v160006Ev, symObjAddr: 0x3D74, symBinAddr: 0x10000D61C, symSize: 0x68 }
  - { offsetInCU: 0x12575, offset: 0x2F18A, size: 0x8, addend: 0x0, symName: __ZNSt3__116reverse_iteratorIPP6PlayerEC1B7v160006ES3_, symObjAddr: 0x3E4C, symBinAddr: 0x10000D6F4, symSize: 0x34 }
  - { offsetInCU: 0x125AB, offset: 0x2F1C0, size: 0x8, addend: 0x0, symName: __ZNSt3__116allocator_traitsINS_9allocatorIP6PlayerEEE7destroyB7v160006IS3_vEEvRS4_PT_, symObjAddr: 0x3EC8, symBinAddr: 0x10000D770, symSize: 0x2C }
  - { offsetInCU: 0x125E8, offset: 0x2F1FD, size: 0x8, addend: 0x0, symName: __ZNSt3__116reverse_iteratorIPP6PlayerEppB7v160006Ev, symObjAddr: 0x3F18, symBinAddr: 0x10000D7C0, symSize: 0x20 }
  - { offsetInCU: 0x1260D, offset: 0x2F222, size: 0x8, addend: 0x0, symName: __ZNKSt3__116reverse_iteratorIPP6PlayerE4baseB7v160006Ev, symObjAddr: 0x3F38, symBinAddr: 0x10000D7E0, symSize: 0x18 }
  - { offsetInCU: 0x12632, offset: 0x2F247, size: 0x8, addend: 0x0, symName: __ZNSt3__19allocatorIP6PlayerE7destroyB7v160006EPS2_, symObjAddr: 0x3F50, symBinAddr: 0x10000D7F8, symSize: 0x14 }
  - { offsetInCU: 0x1266A, offset: 0x2F27F, size: 0x8, addend: 0x0, symName: __ZNSt3__119__to_address_helperINS_16reverse_iteratorIPP6PlayerEEvE6__callB7v160006ERKS5_, symObjAddr: 0x3F64, symBinAddr: 0x10000D80C, symSize: 0x38 }
  - { offsetInCU: 0x1268D, offset: 0x2F2A2, size: 0x8, addend: 0x0, symName: __ZNKSt3__116reverse_iteratorIPP6PlayerEptB7v160006Ev, symObjAddr: 0x3F9C, symBinAddr: 0x10000D844, symSize: 0x24 }
  - { offsetInCU: 0x126B1, offset: 0x2F2C6, size: 0x8, addend: 0x0, symName: __ZNKSt3__116reverse_iteratorIPP6PlayerEdeB7v160006Ev, symObjAddr: 0x3FC0, symBinAddr: 0x10000D868, symSize: 0x28 }
  - { offsetInCU: 0x126E4, offset: 0x2F2F9, size: 0x8, addend: 0x0, symName: __ZNSt3__116reverse_iteratorIPP6PlayerEC2B7v160006ES3_, symObjAddr: 0x3FE8, symBinAddr: 0x10000D890, symSize: 0x28 }
  - { offsetInCU: 0x1271B, offset: 0x2F330, size: 0x8, addend: 0x0, symName: __ZNSt3__16vectorIP6PlayerNS_9allocatorIS2_EEE21_ConstructTransactionD2B7v160006Ev, symObjAddr: 0x4010, symBinAddr: 0x10000D8B8, symSize: 0x20 }
  - { offsetInCU: 0x12744, offset: 0x2F359, size: 0x8, addend: 0x0, symName: __ZNSt3__128__exception_guard_exceptionsINS_6vectorIP6PlayerNS_9allocatorIS3_EEE16__destroy_vectorEED2B7v160006Ev, symObjAddr: 0x4030, symBinAddr: 0x10000D8D8, symSize: 0x50 }
  - { offsetInCU: 0x1276C, offset: 0x2F381, size: 0x8, addend: 0x0, symName: __ZNSt3__16vectorIP6PlayerNS_9allocatorIS2_EEE16__destroy_vectorclB7v160006Ev, symObjAddr: 0x4080, symBinAddr: 0x10000D928, symSize: 0x9C }
  - { offsetInCU: 0x12790, offset: 0x2F3A5, size: 0x8, addend: 0x0, symName: __ZNKSt3__16vectorIP6PlayerNS_9allocatorIS2_EEE17__annotate_deleteB7v160006Ev, symObjAddr: 0x411C, symBinAddr: 0x10000D9C4, symSize: 0xB8 }
  - { offsetInCU: 0x127B4, offset: 0x2F3C9, size: 0x8, addend: 0x0, symName: __ZNSt3__16vectorIP6PlayerNS_9allocatorIS2_EEE7__clearB7v160006Ev, symObjAddr: 0x41E4, symBinAddr: 0x10000DA8C, symSize: 0x28 }
  - { offsetInCU: 0x127D8, offset: 0x2F3ED, size: 0x8, addend: 0x0, symName: __ZNSt3__116allocator_traitsINS_9allocatorIP6PlayerEEE10deallocateB7v160006ERS4_PS3_m, symObjAddr: 0x420C, symBinAddr: 0x10000DAB4, symSize: 0x34 }
  - { offsetInCU: 0x1281A, offset: 0x2F42F, size: 0x8, addend: 0x0, symName: __ZNSt3__16vectorIP6PlayerNS_9allocatorIS2_EEE22__base_destruct_at_endB7v160006EPS2_, symObjAddr: 0x4240, symBinAddr: 0x10000DAE8, symSize: 0x8C }
  - { offsetInCU: 0x1285C, offset: 0x2F471, size: 0x8, addend: 0x0, symName: __ZNSt3__19allocatorIP6PlayerE10deallocateB7v160006EPS2_m, symObjAddr: 0x42CC, symBinAddr: 0x10000DB74, symSize: 0x40 }
  - { offsetInCU: 0x1289C, offset: 0x2F4B1, size: 0x8, addend: 0x0, symName: __ZNSt3__16vectorIP6PlayerNS_9allocatorIS2_EEED2B7v160006Ev, symObjAddr: 0x4414, symBinAddr: 0x10000DBB4, symSize: 0x44 }
  - { offsetInCU: 0x128C4, offset: 0x2F4D9, size: 0x8, addend: 0x0, symName: __ZNSt3__19basic_iosIcNS_11char_traitsIcEEEC2B7v160006Ev, symObjAddr: 0x44B8, symBinAddr: 0x10000DBF8, symSize: 0x44 }
  - { offsetInCU: 0x128EC, offset: 0x2F501, size: 0x8, addend: 0x0, symName: __ZNSt3__113basic_istreamIcNS_11char_traitsIcEEEC2B7v160006EPNS_15basic_streambufIcS2_EE, symObjAddr: 0x44FC, symBinAddr: 0x10000DC3C, symSize: 0x64 }
  - { offsetInCU: 0x1292E, offset: 0x2F543, size: 0x8, addend: 0x0, symName: __ZNSt3__113basic_filebufIcNS_11char_traitsIcEEE4openERKNS_12basic_stringIcS2_NS_9allocatorIcEEEEj, symObjAddr: 0x4560, symBinAddr: 0x10000DCA0, symSize: 0x44 }
  - { offsetInCU: 0x12971, offset: 0x2F586, size: 0x8, addend: 0x0, symName: __ZNSt3__18ios_baseC2B7v160006Ev, symObjAddr: 0x45A4, symBinAddr: 0x10000DCE4, symSize: 0x24 }
  - { offsetInCU: 0x1299A, offset: 0x2F5AF, size: 0x8, addend: 0x0, symName: __ZNSt3__19basic_iosIcNS_11char_traitsIcEEE4initB7v160006EPNS_15basic_streambufIcS2_EE, symObjAddr: 0x45C8, symBinAddr: 0x10000DD08, symSize: 0x44 }
  - { offsetInCU: 0x129D0, offset: 0x2F5E5, size: 0x8, addend: 0x0, symName: __ZNKSt3__112basic_stringIcNS_11char_traitsIcEENS_9allocatorIcEEE5c_strB7v160006Ev, symObjAddr: 0x460C, symBinAddr: 0x10000DD4C, symSize: 0x24 }
  - { offsetInCU: 0x129F4, offset: 0x2F609, size: 0x8, addend: 0x0, symName: __ZNSt3__16vectorIP6PlayerNS_9allocatorIS2_EEEC2B7v160006Ev, symObjAddr: 0x4630, symBinAddr: 0x10000DD70, symSize: 0x54 }
  - { offsetInCU: 0x12A1C, offset: 0x2F631, size: 0x8, addend: 0x0, symName: __ZNSt3__117__compressed_pairIPP6PlayerNS_9allocatorIS2_EEEC1B7v160006IDnNS_18__default_init_tagEEEOT_OT0_, symObjAddr: 0x4684, symBinAddr: 0x10000DDC4, symSize: 0x3C }
  - { offsetInCU: 0x12A72, offset: 0x2F687, size: 0x8, addend: 0x0, symName: __ZNSt3__117__compressed_pairIPP6PlayerNS_9allocatorIS2_EEEC2B7v160006IDnNS_18__default_init_tagEEEOT_OT0_, symObjAddr: 0x46C0, symBinAddr: 0x10000DE00, symSize: 0x40 }
  - { offsetInCU: 0x12AC8, offset: 0x2F6DD, size: 0x8, addend: 0x0, symName: __ZNSt3__122__compressed_pair_elemINS_9allocatorIP6PlayerEELi1ELb1EEC2B7v160006ENS_18__default_init_tagE, symObjAddr: 0x4700, symBinAddr: 0x10000DE40, symSize: 0x2C }
  - { offsetInCU: 0x12AFB, offset: 0x2F710, size: 0x8, addend: 0x0, symName: __ZNSt3__19allocatorIP6PlayerEC2B7v160006Ev, symObjAddr: 0x472C, symBinAddr: 0x10000DE6C, symSize: 0x2C }
  - { offsetInCU: 0x12B23, offset: 0x2F738, size: 0x8, addend: 0x0, symName: __ZNSt3__116__non_trivial_ifILb1ENS_9allocatorIP6PlayerEEEC2B7v160006Ev, symObjAddr: 0x4758, symBinAddr: 0x10000DE98, symSize: 0x14 }
  - { offsetInCU: 0x12B51, offset: 0x2F766, size: 0x8, addend: 0x0, symName: __ZNSt3__16vectorIP6PlayerNS_9allocatorIS2_EEE22__construct_one_at_endB7v160006IJS2_EEEvDpOT_, symObjAddr: 0x476C, symBinAddr: 0x10000DEAC, symSize: 0x90 }
  - { offsetInCU: 0x12B9F, offset: 0x2F7B4, size: 0x8, addend: 0x0, symName: __ZNSt3__16vectorIP6PlayerNS_9allocatorIS2_EEE21__push_back_slow_pathIS2_EEvOT_, symObjAddr: 0x47FC, symBinAddr: 0x10000DF3C, symSize: 0xD8 }
  - { offsetInCU: 0x12BFC, offset: 0x2F811, size: 0x8, addend: 0x0, symName: __ZNSt3__116allocator_traitsINS_9allocatorIP6PlayerEEE9constructB7v160006IS3_JS3_EvEEvRS4_PT_DpOT0_, symObjAddr: 0x48D4, symBinAddr: 0x10000E014, symSize: 0x34 }
  - { offsetInCU: 0x12C54, offset: 0x2F869, size: 0x8, addend: 0x0, symName: __ZNSt3__19allocatorIP6PlayerE9constructB7v160006IS2_JS2_EEEvPT_DpOT0_, symObjAddr: 0x4908, symBinAddr: 0x10000E048, symSize: 0x28 }
  - { offsetInCU: 0x12CAA, offset: 0x2F8BF, size: 0x8, addend: 0x0, symName: __ZNKSt3__16vectorIP6PlayerNS_9allocatorIS2_EEE11__recommendB7v160006Em, symObjAddr: 0x4930, symBinAddr: 0x10000E070, symSize: 0xB4 }
  - { offsetInCU: 0x12CFE, offset: 0x2F913, size: 0x8, addend: 0x0, symName: __ZNSt3__114__split_bufferIP6PlayerRNS_9allocatorIS2_EEEC1EmmS5_, symObjAddr: 0x49E4, symBinAddr: 0x10000E124, symSize: 0x44 }
  - { offsetInCU: 0x12D53, offset: 0x2F968, size: 0x8, addend: 0x0, symName: __ZNSt3__114__split_bufferIP6PlayerRNS_9allocatorIS2_EEED1Ev, symObjAddr: 0x4B40, symBinAddr: 0x10000E280, symSize: 0x2C }
  - { offsetInCU: 0x12D7E, offset: 0x2F993, size: 0x8, addend: 0x0, symName: __ZNSt3__114__split_bufferIP6PlayerRNS_9allocatorIS2_EEEC2EmmS5_, symObjAddr: 0x4BEC, symBinAddr: 0x10000E2AC, symSize: 0xD4 }
  - { offsetInCU: 0x12DF0, offset: 0x2FA05, size: 0x8, addend: 0x0, symName: __ZNSt3__117__compressed_pairIPP6PlayerRNS_9allocatorIS2_EEEC1B7v160006IDnS6_EEOT_OT0_, symObjAddr: 0x4CC0, symBinAddr: 0x10000E380, symSize: 0x3C }
  - { offsetInCU: 0x12E46, offset: 0x2FA5B, size: 0x8, addend: 0x0, symName: __ZNSt3__114__split_bufferIP6PlayerRNS_9allocatorIS2_EEE7__allocB7v160006Ev, symObjAddr: 0x4CFC, symBinAddr: 0x10000E3BC, symSize: 0x28 }
  - { offsetInCU: 0x12E6A, offset: 0x2FA7F, size: 0x8, addend: 0x0, symName: __ZNSt3__114__split_bufferIP6PlayerRNS_9allocatorIS2_EEE9__end_capB7v160006Ev, symObjAddr: 0x4D24, symBinAddr: 0x10000E3E4, symSize: 0x28 }
  - { offsetInCU: 0x12E8E, offset: 0x2FAA3, size: 0x8, addend: 0x0, symName: __ZNSt3__117__compressed_pairIPP6PlayerRNS_9allocatorIS2_EEEC2B7v160006IDnS6_EEOT_OT0_, symObjAddr: 0x4D4C, symBinAddr: 0x10000E40C, symSize: 0x48 }
  - { offsetInCU: 0x12EE4, offset: 0x2FAF9, size: 0x8, addend: 0x0, symName: __ZNSt3__122__compressed_pair_elemIRNS_9allocatorIP6PlayerEELi1ELb0EEC2B7v160006IS5_vEEOT_, symObjAddr: 0x4D94, symBinAddr: 0x10000E454, symSize: 0x20 }
  - { offsetInCU: 0x12F25, offset: 0x2FB3A, size: 0x8, addend: 0x0, symName: __ZNSt3__117__compressed_pairIPP6PlayerRNS_9allocatorIS2_EEE6secondB7v160006Ev, symObjAddr: 0x4DB4, symBinAddr: 0x10000E474, symSize: 0x28 }
  - { offsetInCU: 0x12F49, offset: 0x2FB5E, size: 0x8, addend: 0x0, symName: __ZNSt3__122__compressed_pair_elemIRNS_9allocatorIP6PlayerEELi1ELb0EE5__getB7v160006Ev, symObjAddr: 0x4DDC, symBinAddr: 0x10000E49C, symSize: 0x18 }
  - { offsetInCU: 0x12F6E, offset: 0x2FB83, size: 0x8, addend: 0x0, symName: __ZNSt3__117__compressed_pairIPP6PlayerRNS_9allocatorIS2_EEE5firstB7v160006Ev, symObjAddr: 0x4DF4, symBinAddr: 0x10000E4B4, symSize: 0x24 }
  - { offsetInCU: 0x12FB5, offset: 0x2FBCA, size: 0x8, addend: 0x0, symName: __ZNKSt3__111__move_loopINS_17_ClassicAlgPolicyEEclB7v160006INS_16reverse_iteratorIPP6PlayerEES8_S8_EENS_4pairIT_T1_EESA_T0_SB_, symObjAddr: 0x51CC, symBinAddr: 0x10000E88C, symSize: 0xA0 }
  - { offsetInCU: 0x1301E, offset: 0x2FC33, size: 0x8, addend: 0x0, symName: __ZNSt3__18_IterOpsINS_17_ClassicAlgPolicyEE11__iter_moveB7v160006IRNS_16reverse_iteratorIPP6PlayerEEEENS_9enable_ifIXsr12is_referenceIDTdeclsr3stdE7declvalIRT_EEEEE5valueEDTclsr3stdE4movedeclsr3stdE7declvalISC_EEEEE4typeEOSB_, symObjAddr: 0x53B8, symBinAddr: 0x10000EA78, symSize: 0x28 }
  - { offsetInCU: 0x1304A, offset: 0x2FC5F, size: 0x8, addend: 0x0, symName: __ZNSt3__18_IterOpsINS_17_ClassicAlgPolicyEE25__validate_iter_referenceB7v160006IRNS_16reverse_iteratorIPP6PlayerEEEEvv, symObjAddr: 0x53E0, symBinAddr: 0x10000EAA0, symSize: 0x4 }
  - { offsetInCU: 0x13068, offset: 0x2FC7D, size: 0x8, addend: 0x0, symName: __ZNSt3__118__unwrap_iter_implINS_16reverse_iteratorIPP6PlayerEELb0EE8__unwrapB7v160006ES5_, symObjAddr: 0x53E4, symBinAddr: 0x10000EAA4, symSize: 0x24 }
  - { offsetInCU: 0x13090, offset: 0x2FCA5, size: 0x8, addend: 0x0, symName: __ZNSt3__14pairINS_16reverse_iteratorIPP6PlayerEES5_EC1B7v160006IS5_S5_LPv0EEEOT_OT0_, symObjAddr: 0x5408, symBinAddr: 0x10000EAC8, symSize: 0x3C }
  - { offsetInCU: 0x130ED, offset: 0x2FD02, size: 0x8, addend: 0x0, symName: __ZNSt3__14pairINS_16reverse_iteratorIPP6PlayerEES5_EC2B7v160006IS5_S5_LPv0EEEOT_OT0_, symObjAddr: 0x5444, symBinAddr: 0x10000EB04, symSize: 0x34 }
  - { offsetInCU: 0x1314B, offset: 0x2FD60, size: 0x8, addend: 0x0, symName: __ZNSt3__118__unwrap_iter_implINS_16reverse_iteratorIPP6PlayerEELb0EE8__rewrapB7v160006ES5_S5_, symObjAddr: 0x5478, symBinAddr: 0x10000EB38, symSize: 0x2C }
  - { offsetInCU: 0x13179, offset: 0x2FD8E, size: 0x8, addend: 0x0, symName: __ZNSt3__114__split_bufferIP6PlayerRNS_9allocatorIS2_EEED2Ev, symObjAddr: 0x54A4, symBinAddr: 0x10000EB64, symSize: 0x8C }
  - { offsetInCU: 0x131A4, offset: 0x2FDB9, size: 0x8, addend: 0x0, symName: __ZNSt3__114__split_bufferIP6PlayerRNS_9allocatorIS2_EEE5clearB7v160006Ev, symObjAddr: 0x5530, symBinAddr: 0x10000EBF0, symSize: 0x28 }
  - { offsetInCU: 0x131C8, offset: 0x2FDDD, size: 0x8, addend: 0x0, symName: __ZNKSt3__114__split_bufferIP6PlayerRNS_9allocatorIS2_EEE8capacityB7v160006Ev, symObjAddr: 0x5558, symBinAddr: 0x10000EC18, symSize: 0x40 }
  - { offsetInCU: 0x131EC, offset: 0x2FE01, size: 0x8, addend: 0x0, symName: __ZNSt3__114__split_bufferIP6PlayerRNS_9allocatorIS2_EEE17__destruct_at_endB7v160006EPS2_, symObjAddr: 0x5598, symBinAddr: 0x10000EC58, symSize: 0x2C }
  - { offsetInCU: 0x1321E, offset: 0x2FE33, size: 0x8, addend: 0x0, symName: __ZNSt3__114__split_bufferIP6PlayerRNS_9allocatorIS2_EEE17__destruct_at_endB7v160006EPS2_NS_17integral_constantIbLb0EEE, symObjAddr: 0x55C4, symBinAddr: 0x10000EC84, symSize: 0x80 }
  - { offsetInCU: 0x1325E, offset: 0x2FE73, size: 0x8, addend: 0x0, symName: __ZNKSt3__114__split_bufferIP6PlayerRNS_9allocatorIS2_EEE9__end_capB7v160006Ev, symObjAddr: 0x5644, symBinAddr: 0x10000ED04, symSize: 0x28 }
  - { offsetInCU: 0x13282, offset: 0x2FE97, size: 0x8, addend: 0x0, symName: __ZNKSt3__117__compressed_pairIPP6PlayerRNS_9allocatorIS2_EEE5firstB7v160006Ev, symObjAddr: 0x566C, symBinAddr: 0x10000ED2C, symSize: 0x24 }
  - { offsetInCU: 0x132A6, offset: 0x2FEBB, size: 0x8, addend: 0x0, symName: __ZNKSt3__113basic_filebufIcNS_11char_traitsIcEEE7is_openEv, symObjAddr: 0x5690, symBinAddr: 0x10000ED50, symSize: 0x24 }
...
